(dp0
S':dollar:'
p1
S'/Users/dana1/HackerSchool/ledscreen/LEDBot/emoji/dollar.png'
p2
sS':arrow_double_up:'
p3
S'/Users/dana1/HackerSchool/ledscreen/LEDBot/emoji/arrow_double_up.png'
p4
sS':pound:'
p5
S'/Users/dana1/HackerSchool/ledscreen/LEDBot/emoji/pound.png'
p6
sS':microscope:'
p7
S'/Users/dana1/HackerSchool/ledscreen/LEDBot/emoji/microscope.png'
p8
sS':confounded:'
p9
S'/Users/dana1/HackerSchool/ledscreen/LEDBot/emoji/confounded.png'
p10
sS':corn:'
p11
S'/Users/dana1/HackerSchool/ledscreen/LEDBot/emoji/corn.png'
p12
sS':soon:'
p13
S'/Users/dana1/HackerSchool/ledscreen/LEDBot/emoji/soon.png'
p14
sS':pushpin:'
p15
S'/Users/dana1/HackerSchool/ledscreen/LEDBot/emoji/pushpin.png'
p16
sS':arrow_backward:'
p17
S'/Users/dana1/HackerSchool/ledscreen/LEDBot/emoji/arrow_backward.png'
p18
sS':shaved_ice:'
p19
S'/Users/dana1/HackerSchool/ledscreen/LEDBot/emoji/shaved_ice.png'
p20
sS':weary:'
p21
S'/Users/dana1/HackerSchool/ledscreen/LEDBot/emoji/weary.png'
p22
sS':laughing:'
p23
S'/Users/dana1/HackerSchool/ledscreen/LEDBot/emoji/laughing.png'
p24
sS':arrow_heading_up:'
p25
S'/Users/dana1/HackerSchool/ledscreen/LEDBot/emoji/arrow_heading_up.png'
p26
sS':dog:'
p27
S'/Users/dana1/HackerSchool/ledscreen/LEDBot/emoji/dog.png'
p28
sS':fish:'
p29
S'/Users/dana1/HackerSchool/ledscreen/LEDBot/emoji/fish.png'
p30
sS':ear:'
p31
S'/Users/dana1/HackerSchool/ledscreen/LEDBot/emoji/ear.png'
p32
sS':arrows_counterclockwise:'
p33
S'/Users/dana1/HackerSchool/ledscreen/LEDBot/emoji/arrows_counterclockwise.png'
p34
sS':palm_tree:'
p35
S'/Users/dana1/HackerSchool/ledscreen/LEDBot/emoji/palm_tree.png'
p36
sS':mushroom:'
p37
S'/Users/dana1/HackerSchool/ledscreen/LEDBot/emoji/mushroom.png'
p38
sS':crescent_moon:'
p39
S'/Users/dana1/HackerSchool/ledscreen/LEDBot/emoji/crescent_moon.png'
p40
sS':golf:'
p41
S'/Users/dana1/HackerSchool/ledscreen/LEDBot/emoji/golf.png'
p42
sS':dog2:'
p43
S'/Users/dana1/HackerSchool/ledscreen/LEDBot/emoji/dog2.png'
p44
sS':dart:'
p45
S'/Users/dana1/HackerSchool/ledscreen/LEDBot/emoji/dart.png'
p46
sS':light_rail:'
p47
S'/Users/dana1/HackerSchool/ledscreen/LEDBot/emoji/light_rail.png'
p48
sS':watch:'
p49
S'/Users/dana1/HackerSchool/ledscreen/LEDBot/emoji/watch.png'
p50
sS':part_alternation_mark:'
p51
S'/Users/dana1/HackerSchool/ledscreen/LEDBot/emoji/part_alternation_mark.png'
p52
sS':arrow_upper_right:'
p53
S'/Users/dana1/HackerSchool/ledscreen/LEDBot/emoji/arrow_upper_right.png'
p54
sS':open_hands:'
p55
S'/Users/dana1/HackerSchool/ledscreen/LEDBot/emoji/open_hands.png'
p56
sS':factory:'
p57
S'/Users/dana1/HackerSchool/ledscreen/LEDBot/emoji/factory.png'
p58
sS':ramen:'
p59
S'/Users/dana1/HackerSchool/ledscreen/LEDBot/emoji/ramen.png'
p60
sS':car:'
p61
S'/Users/dana1/HackerSchool/ledscreen/LEDBot/emoji/car.png'
p62
sS':jack_o_lantern:'
p63
S'/Users/dana1/HackerSchool/ledscreen/LEDBot/emoji/jack_o_lantern.png'
p64
sS':thought_balloon:'
p65
S'/Users/dana1/HackerSchool/ledscreen/LEDBot/emoji/thought_balloon.png'
p66
sS':leo:'
p67
S'/Users/dana1/HackerSchool/ledscreen/LEDBot/emoji/leo.png'
p68
sS':question:'
p69
S'/Users/dana1/HackerSchool/ledscreen/LEDBot/emoji/question.png'
p70
sS':customs:'
p71
S'/Users/dana1/HackerSchool/ledscreen/LEDBot/emoji/customs.png'
p72
sS':goat:'
p73
S'/Users/dana1/HackerSchool/ledscreen/LEDBot/emoji/goat.png'
p74
sS':mailbox_with_mail:'
p75
S'/Users/dana1/HackerSchool/ledscreen/LEDBot/emoji/mailbox_with_mail.png'
p76
sS':smirk_cat:'
p77
S'/Users/dana1/HackerSchool/ledscreen/LEDBot/emoji/smirk_cat.png'
p78
sS':school_satchel:'
p79
S'/Users/dana1/HackerSchool/ledscreen/LEDBot/emoji/school_satchel.png'
p80
sS':symbols:'
p81
S'/Users/dana1/HackerSchool/ledscreen/LEDBot/emoji/symbols.png'
p82
sS':satellite:'
p83
S'/Users/dana1/HackerSchool/ledscreen/LEDBot/emoji/satellite.png'
p84
sS':european_castle:'
p85
S'/Users/dana1/HackerSchool/ledscreen/LEDBot/emoji/european_castle.png'
p86
sS':princess:'
p87
S'/Users/dana1/HackerSchool/ledscreen/LEDBot/emoji/princess.png'
p88
sS':hammer:'
p89
S'/Users/dana1/HackerSchool/ledscreen/LEDBot/emoji/hammer.png'
p90
sS':arrow_left:'
p91
S'/Users/dana1/HackerSchool/ledscreen/LEDBot/emoji/arrow_left.png'
p92
sS':virgo:'
p93
S'/Users/dana1/HackerSchool/ledscreen/LEDBot/emoji/virgo.png'
p94
sS':womens:'
p95
S'/Users/dana1/HackerSchool/ledscreen/LEDBot/emoji/womens.png'
p96
sS':yum:'
p97
S'/Users/dana1/HackerSchool/ledscreen/LEDBot/emoji/yum.png'
p98
sS':heart:'
p99
S'/Users/dana1/HackerSchool/ledscreen/LEDBot/emoji/heart.png'
p100
sS':rooster:'
p101
S'/Users/dana1/HackerSchool/ledscreen/LEDBot/emoji/rooster.png'
p102
sS':two_men_holding_hands:'
p103
S'/Users/dana1/HackerSchool/ledscreen/LEDBot/emoji/two_men_holding_hands.png'
p104
sS':computer:'
p105
S'/Users/dana1/HackerSchool/ledscreen/LEDBot/emoji/computer.png'
p106
sS':red_car:'
p107
S'/Users/dana1/HackerSchool/ledscreen/LEDBot/emoji/red_car.png'
p108
sS':eggplant:'
p109
S'/Users/dana1/HackerSchool/ledscreen/LEDBot/emoji/eggplant.png'
p110
sS':fast_forward:'
p111
S'/Users/dana1/HackerSchool/ledscreen/LEDBot/emoji/fast_forward.png'
p112
sS':monkey:'
p113
S'/Users/dana1/HackerSchool/ledscreen/LEDBot/emoji/monkey.png'
p114
sS':smoking:'
p115
S'/Users/dana1/HackerSchool/ledscreen/LEDBot/emoji/smoking.png'
p116
sS':pray:'
p117
S'/Users/dana1/HackerSchool/ledscreen/LEDBot/emoji/pray.png'
p118
sS':racehorse:'
p119
S'/Users/dana1/HackerSchool/ledscreen/LEDBot/emoji/racehorse.png'
p120
sS':congratulations:'
p121
S'/Users/dana1/HackerSchool/ledscreen/LEDBot/emoji/congratulations.png'
p122
sS':traffic_light:'
p123
S'/Users/dana1/HackerSchool/ledscreen/LEDBot/emoji/traffic_light.png'
p124
sS':copyright:'
p125
S'/Users/dana1/HackerSchool/ledscreen/LEDBot/emoji/copyright.png'
p126
sS':herb:'
p127
S'/Users/dana1/HackerSchool/ledscreen/LEDBot/emoji/herb.png'
p128
sS':family:'
p129
S'/Users/dana1/HackerSchool/ledscreen/LEDBot/emoji/family.png'
p130
sS':rotating_light:'
p131
S'/Users/dana1/HackerSchool/ledscreen/LEDBot/emoji/rotating_light.png'
p132
sS':curly_loop:'
p133
S'/Users/dana1/HackerSchool/ledscreen/LEDBot/emoji/curly_loop.png'
p134
sS':roller_coaster:'
p135
S'/Users/dana1/HackerSchool/ledscreen/LEDBot/emoji/roller_coaster.png'
p136
sS':rugby_football:'
p137
S'/Users/dana1/HackerSchool/ledscreen/LEDBot/emoji/rugby_football.png'
p138
sS':full_moon:'
p139
S'/Users/dana1/HackerSchool/ledscreen/LEDBot/emoji/full_moon.png'
p140
sS':swimmer:'
p141
S'/Users/dana1/HackerSchool/ledscreen/LEDBot/emoji/swimmer.png'
p142
sS':hotel:'
p143
S'/Users/dana1/HackerSchool/ledscreen/LEDBot/emoji/hotel.png'
p144
sS':izakaya_lantern:'
p145
S'/Users/dana1/HackerSchool/ledscreen/LEDBot/emoji/izakaya_lantern.png'
p146
sS':pouch:'
p147
S'/Users/dana1/HackerSchool/ledscreen/LEDBot/emoji/pouch.png'
p148
sS':kissing_smiling_eyes:'
p149
S'/Users/dana1/HackerSchool/ledscreen/LEDBot/emoji/kissing_smiling_eyes.png'
p150
sS':eight:'
p151
S'/Users/dana1/HackerSchool/ledscreen/LEDBot/emoji/eight.png'
p152
sS':ok_woman:'
p153
S'/Users/dana1/HackerSchool/ledscreen/LEDBot/emoji/ok_woman.png'
p154
sS':japanese_castle:'
p155
S'/Users/dana1/HackerSchool/ledscreen/LEDBot/emoji/japanese_castle.png'
p156
sS':cool:'
p157
S'/Users/dana1/HackerSchool/ledscreen/LEDBot/emoji/cool.png'
p158
sS':snail:'
p159
S'/Users/dana1/HackerSchool/ledscreen/LEDBot/emoji/snail.png'
p160
sS':shower:'
p161
S'/Users/dana1/HackerSchool/ledscreen/LEDBot/emoji/shower.png'
p162
sS':mortar_board:'
p163
S'/Users/dana1/HackerSchool/ledscreen/LEDBot/emoji/mortar_board.png'
p164
sS':penguin:'
p165
S'/Users/dana1/HackerSchool/ledscreen/LEDBot/emoji/penguin.png'
p166
sS':four:'
p167
S'/Users/dana1/HackerSchool/ledscreen/LEDBot/emoji/four.png'
p168
sS':see_no_evil:'
p169
S'/Users/dana1/HackerSchool/ledscreen/LEDBot/emoji/see_no_evil.png'
p170
sS':postbox:'
p171
S'/Users/dana1/HackerSchool/ledscreen/LEDBot/emoji/postbox.png'
p172
sS':astonished:'
p173
S'/Users/dana1/HackerSchool/ledscreen/LEDBot/emoji/astonished.png'
p174
sS':jeans:'
p175
S'/Users/dana1/HackerSchool/ledscreen/LEDBot/emoji/jeans.png'
p176
sS':shoe:'
p177
S'/Users/dana1/HackerSchool/ledscreen/LEDBot/emoji/shoe.png'
p178
sS':capital_abcd:'
p179
S'/Users/dana1/HackerSchool/ledscreen/LEDBot/emoji/capital_abcd.png'
p180
sS':stuck_out_tongue_winking_eye:'
p181
S'/Users/dana1/HackerSchool/ledscreen/LEDBot/emoji/stuck_out_tongue_winking_eye.png'
p182
sS':sparkle:'
p183
S'/Users/dana1/HackerSchool/ledscreen/LEDBot/emoji/sparkle.png'
p184
sS':point_left:'
p185
S'/Users/dana1/HackerSchool/ledscreen/LEDBot/emoji/point_left.png'
p186
sS':handbag:'
p187
S'/Users/dana1/HackerSchool/ledscreen/LEDBot/emoji/handbag.png'
p188
sS':sheep:'
p189
S'/Users/dana1/HackerSchool/ledscreen/LEDBot/emoji/sheep.png'
p190
sS':busts_in_silhouette:'
p191
S'/Users/dana1/HackerSchool/ledscreen/LEDBot/emoji/busts_in_silhouette.png'
p192
sS':full_moon_with_face:'
p193
S'/Users/dana1/HackerSchool/ledscreen/LEDBot/emoji/full_moon_with_face.png'
p194
sS':large_blue_circle:'
p195
S'/Users/dana1/HackerSchool/ledscreen/LEDBot/emoji/large_blue_circle.png'
p196
sS':notebook:'
p197
S'/Users/dana1/HackerSchool/ledscreen/LEDBot/emoji/notebook.png'
p198
sS':bell:'
p199
S'/Users/dana1/HackerSchool/ledscreen/LEDBot/emoji/bell.png'
p200
sS':vhs:'
p201
S'/Users/dana1/HackerSchool/ledscreen/LEDBot/emoji/vhs.png'
p202
sS':bullettrain_front:'
p203
S'/Users/dana1/HackerSchool/ledscreen/LEDBot/emoji/bullettrain_front.png'
p204
sS':sun_with_face:'
p205
S'/Users/dana1/HackerSchool/ledscreen/LEDBot/emoji/sun_with_face.png'
p206
sS':high_brightness:'
p207
S'/Users/dana1/HackerSchool/ledscreen/LEDBot/emoji/high_brightness.png'
p208
sS':crossed_flags:'
p209
S'/Users/dana1/HackerSchool/ledscreen/LEDBot/emoji/crossed_flags.png'
p210
sS':wheelchair:'
p211
S'/Users/dana1/HackerSchool/ledscreen/LEDBot/emoji/wheelchair.png'
p212
sS':raised_hand:'
p213
S'/Users/dana1/HackerSchool/ledscreen/LEDBot/emoji/raised_hand.png'
p214
sS':beer:'
p215
S'/Users/dana1/HackerSchool/ledscreen/LEDBot/emoji/beer.png'
p216
sS':guitar:'
p217
S'/Users/dana1/HackerSchool/ledscreen/LEDBot/emoji/guitar.png'
p218
sS':police_car:'
p219
S'/Users/dana1/HackerSchool/ledscreen/LEDBot/emoji/police_car.png'
p220
sS':pig:'
p221
S'/Users/dana1/HackerSchool/ledscreen/LEDBot/emoji/pig.png'
p222
sS':radio:'
p223
S'/Users/dana1/HackerSchool/ledscreen/LEDBot/emoji/radio.png'
p224
sS':unamused:'
p225
S'/Users/dana1/HackerSchool/ledscreen/LEDBot/emoji/unamused.png'
p226
sS':kissing:'
p227
S'/Users/dana1/HackerSchool/ledscreen/LEDBot/emoji/kissing.png'
p228
sS':panda_face:'
p229
S'/Users/dana1/HackerSchool/ledscreen/LEDBot/emoji/panda_face.png'
p230
sS':no_smoking:'
p231
S'/Users/dana1/HackerSchool/ledscreen/LEDBot/emoji/no_smoking.png'
p232
sS':camel:'
p233
S'/Users/dana1/HackerSchool/ledscreen/LEDBot/emoji/camel.png'
p234
sS':baseball:'
p235
S'/Users/dana1/HackerSchool/ledscreen/LEDBot/emoji/baseball.png'
p236
sS':new_moon_with_face:'
p237
S'/Users/dana1/HackerSchool/ledscreen/LEDBot/emoji/new_moon_with_face.png'
p238
sS':sandal:'
p239
S'/Users/dana1/HackerSchool/ledscreen/LEDBot/emoji/sandal.png'
p240
sS':boat:'
p241
S'/Users/dana1/HackerSchool/ledscreen/LEDBot/emoji/boat.png'
p242
sS':mask:'
p243
S'/Users/dana1/HackerSchool/ledscreen/LEDBot/emoji/mask.png'
p244
sS':three:'
p245
S'/Users/dana1/HackerSchool/ledscreen/LEDBot/emoji/three.png'
p246
sS':ledger:'
p247
S'/Users/dana1/HackerSchool/ledscreen/LEDBot/emoji/ledger.png'
p248
sS':slot_machine:'
p249
S'/Users/dana1/HackerSchool/ledscreen/LEDBot/emoji/slot_machine.png'
p250
sS':fuelpump:'
p251
S'/Users/dana1/HackerSchool/ledscreen/LEDBot/emoji/fuelpump.png'
p252
sS':rice_scene:'
p253
S'/Users/dana1/HackerSchool/ledscreen/LEDBot/emoji/rice_scene.png'
p254
sS':rowboat:'
p255
S'/Users/dana1/HackerSchool/ledscreen/LEDBot/emoji/rowboat.png'
p256
sS':toilet:'
p257
S'/Users/dana1/HackerSchool/ledscreen/LEDBot/emoji/toilet.png'
p258
sS':hearts:'
p259
S'/Users/dana1/HackerSchool/ledscreen/LEDBot/emoji/hearts.png'
p260
sS':black_joker:'
p261
S'/Users/dana1/HackerSchool/ledscreen/LEDBot/emoji/black_joker.png'
p262
sS':hamster:'
p263
S'/Users/dana1/HackerSchool/ledscreen/LEDBot/emoji/hamster.png'
p264
sS':cat2:'
p265
S'/Users/dana1/HackerSchool/ledscreen/LEDBot/emoji/cat2.png'
p266
sS':haircut:'
p267
S'/Users/dana1/HackerSchool/ledscreen/LEDBot/emoji/haircut.png'
p268
sS':sailboat:'
p269
S'/Users/dana1/HackerSchool/ledscreen/LEDBot/emoji/sailboat.png'
p270
sS':green_book:'
p271
S'/Users/dana1/HackerSchool/ledscreen/LEDBot/emoji/green_book.png'
p272
sS':six_pointed_star:'
p273
S'/Users/dana1/HackerSchool/ledscreen/LEDBot/emoji/six_pointed_star.png'
p274
sS':tired_face:'
p275
S'/Users/dana1/HackerSchool/ledscreen/LEDBot/emoji/tired_face.png'
p276
sS':horse:'
p277
S'/Users/dana1/HackerSchool/ledscreen/LEDBot/emoji/horse.png'
p278
sS':heart_eyes:'
p279
S'/Users/dana1/HackerSchool/ledscreen/LEDBot/emoji/heart_eyes.png'
p280
sS':train2:'
p281
S'/Users/dana1/HackerSchool/ledscreen/LEDBot/emoji/train2.png'
p282
sS':waxing_gibbous_moon:'
p283
S'/Users/dana1/HackerSchool/ledscreen/LEDBot/emoji/waxing_gibbous_moon.png'
p284
sS':mobile_phone_off:'
p285
S'/Users/dana1/HackerSchool/ledscreen/LEDBot/emoji/mobile_phone_off.png'
p286
sS':abcd:'
p287
S'/Users/dana1/HackerSchool/ledscreen/LEDBot/emoji/abcd.png'
p288
sS':card_index:'
p289
S'/Users/dana1/HackerSchool/ledscreen/LEDBot/emoji/card_index.png'
p290
sS':envelope_with_arrow:'
p291
S'/Users/dana1/HackerSchool/ledscreen/LEDBot/emoji/envelope_with_arrow.png'
p292
sS':tiger:'
p293
S'/Users/dana1/HackerSchool/ledscreen/LEDBot/emoji/tiger.png'
p294
sS':two_women_holding_hands:'
p295
S'/Users/dana1/HackerSchool/ledscreen/LEDBot/emoji/two_women_holding_hands.png'
p296
sS':chart_with_downwards_trend:'
p297
S'/Users/dana1/HackerSchool/ledscreen/LEDBot/emoji/chart_with_downwards_trend.png'
p298
sS':cinema:'
p299
S'/Users/dana1/HackerSchool/ledscreen/LEDBot/emoji/cinema.png'
p300
sS':relaxed:'
p301
S'/Users/dana1/HackerSchool/ledscreen/LEDBot/emoji/relaxed.png'
p302
sS':large_orange_diamond:'
p303
S'/Users/dana1/HackerSchool/ledscreen/LEDBot/emoji/large_orange_diamond.png'
p304
sS':mountain_railway:'
p305
S'/Users/dana1/HackerSchool/ledscreen/LEDBot/emoji/mountain_railway.png'
p306
sS':revolving_hearts:'
p307
S'/Users/dana1/HackerSchool/ledscreen/LEDBot/emoji/revolving_hearts.png'
p308
sS':nine:'
p309
S'/Users/dana1/HackerSchool/ledscreen/LEDBot/emoji/nine.png'
p310
sS':first_quarter_moon:'
p311
S'/Users/dana1/HackerSchool/ledscreen/LEDBot/emoji/first_quarter_moon.png'
p312
sS':sunflower:'
p313
S'/Users/dana1/HackerSchool/ledscreen/LEDBot/emoji/sunflower.png'
p314
sS':ferris_wheel:'
p315
S'/Users/dana1/HackerSchool/ledscreen/LEDBot/emoji/ferris_wheel.png'
p316
sS':man_with_gua_pi_mao:'
p317
S'/Users/dana1/HackerSchool/ledscreen/LEDBot/emoji/man_with_gua_pi_mao.png'
p318
sS':first_quarter_moon_with_face:'
p319
S'/Users/dana1/HackerSchool/ledscreen/LEDBot/emoji/first_quarter_moon_with_face.png'
p320
sS':bus:'
p321
S'/Users/dana1/HackerSchool/ledscreen/LEDBot/emoji/bus.png'
p322
sS':memo:'
p323
S'/Users/dana1/HackerSchool/ledscreen/LEDBot/emoji/memo.png'
p324
sS':ear_of_rice:'
p325
S'/Users/dana1/HackerSchool/ledscreen/LEDBot/emoji/ear_of_rice.png'
p326
sS':kissing_cat:'
p327
S'/Users/dana1/HackerSchool/ledscreen/LEDBot/emoji/kissing_cat.png'
p328
sS':hourglass_flowing_sand:'
p329
S'/Users/dana1/HackerSchool/ledscreen/LEDBot/emoji/hourglass_flowing_sand.png'
p330
sS':crocodile:'
p331
S'/Users/dana1/HackerSchool/ledscreen/LEDBot/emoji/crocodile.png'
p332
sS':deciduous_tree:'
p333
S'/Users/dana1/HackerSchool/ledscreen/LEDBot/emoji/deciduous_tree.png'
p334
sS':articulated_lorry:'
p335
S'/Users/dana1/HackerSchool/ledscreen/LEDBot/emoji/articulated_lorry.png'
p336
sS':hankey:'
p337
S'/Users/dana1/HackerSchool/ledscreen/LEDBot/emoji/hankey.png'
p338
sS':coffee:'
p339
S'/Users/dana1/HackerSchool/ledscreen/LEDBot/emoji/coffee.png'
p340
sS':eyes:'
p341
S'/Users/dana1/HackerSchool/ledscreen/LEDBot/emoji/eyes.png'
p342
sS':briefcase:'
p343
S'/Users/dana1/HackerSchool/ledscreen/LEDBot/emoji/briefcase.png'
p344
sS':koko:'
p345
S'/Users/dana1/HackerSchool/ledscreen/LEDBot/emoji/koko.png'
p346
sS':tongue:'
p347
S'/Users/dana1/HackerSchool/ledscreen/LEDBot/emoji/tongue.png'
p348
sS':keycap_ten:'
p349
S'/Users/dana1/HackerSchool/ledscreen/LEDBot/emoji/keycap_ten.png'
p350
sS':running:'
p351
S'/Users/dana1/HackerSchool/ledscreen/LEDBot/emoji/running.png'
p352
sS':church:'
p353
S'/Users/dana1/HackerSchool/ledscreen/LEDBot/emoji/church.png'
p354
sS':left_luggage:'
p355
S'/Users/dana1/HackerSchool/ledscreen/LEDBot/emoji/left_luggage.png'
p356
sS':dango:'
p357
S'/Users/dana1/HackerSchool/ledscreen/LEDBot/emoji/dango.png'
p358
sS':ship:'
p359
S'/Users/dana1/HackerSchool/ledscreen/LEDBot/emoji/ship.png'
p360
sS':metro:'
p361
S'/Users/dana1/HackerSchool/ledscreen/LEDBot/emoji/metro.png'
p362
sS':tangerine:'
p363
S'/Users/dana1/HackerSchool/ledscreen/LEDBot/emoji/tangerine.png'
p364
sS':boot:'
p365
S'/Users/dana1/HackerSchool/ledscreen/LEDBot/emoji/boot.png'
p366
sS':blowfish:'
p367
S'/Users/dana1/HackerSchool/ledscreen/LEDBot/emoji/blowfish.png'
p368
sS':heart_decoration:'
p369
S'/Users/dana1/HackerSchool/ledscreen/LEDBot/emoji/heart_decoration.png'
p370
sS':grey_exclamation:'
p371
S'/Users/dana1/HackerSchool/ledscreen/LEDBot/emoji/grey_exclamation.png'
p372
sS':flags:'
p373
S'/Users/dana1/HackerSchool/ledscreen/LEDBot/emoji/flags.png'
p374
sS':thumbsdown:'
p375
S'/Users/dana1/HackerSchool/ledscreen/LEDBot/emoji/thumbsdown.png'
p376
sS':black_small_square:'
p377
S'/Users/dana1/HackerSchool/ledscreen/LEDBot/emoji/black_small_square.png'
p378
sS':open_mouth:'
p379
S'/Users/dana1/HackerSchool/ledscreen/LEDBot/emoji/open_mouth.png'
p380
sS':couple_with_heart:'
p381
S'/Users/dana1/HackerSchool/ledscreen/LEDBot/emoji/couple_with_heart.png'
p382
sS':neutral_face:'
p383
S'/Users/dana1/HackerSchool/ledscreen/LEDBot/emoji/neutral_face.png'
p384
sS':broken_heart:'
p385
S'/Users/dana1/HackerSchool/ledscreen/LEDBot/emoji/broken_heart.png'
p386
sS':fist:'
p387
S'/Users/dana1/HackerSchool/ledscreen/LEDBot/emoji/fist.png'
p388
sS':chocolate_bar:'
p389
S'/Users/dana1/HackerSchool/ledscreen/LEDBot/emoji/chocolate_bar.png'
p390
sS':white_square_button:'
p391
S'/Users/dana1/HackerSchool/ledscreen/LEDBot/emoji/white_square_button.png'
p392
sS':smile:'
p393
S'/Users/dana1/HackerSchool/ledscreen/LEDBot/emoji/smile.png'
p394
sS':no_good:'
p395
S'/Users/dana1/HackerSchool/ledscreen/LEDBot/emoji/no_good.png'
p396
sS':calling:'
p397
S'/Users/dana1/HackerSchool/ledscreen/LEDBot/emoji/calling.png'
p398
sS':small_blue_diamond:'
p399
S'/Users/dana1/HackerSchool/ledscreen/LEDBot/emoji/small_blue_diamond.png'
p400
sS':white_circle:'
p401
S'/Users/dana1/HackerSchool/ledscreen/LEDBot/emoji/white_circle.png'
p402
sS':cloud:'
p403
S'/Users/dana1/HackerSchool/ledscreen/LEDBot/emoji/cloud.png'
p404
sS':page_with_curl:'
p405
S'/Users/dana1/HackerSchool/ledscreen/LEDBot/emoji/page_with_curl.png'
p406
sS':angel:'
p407
S'/Users/dana1/HackerSchool/ledscreen/LEDBot/emoji/angel.png'
p408
sS':blue_heart:'
p409
S'/Users/dana1/HackerSchool/ledscreen/LEDBot/emoji/blue_heart.png'
p410
sS':calendar:'
p411
S'/Users/dana1/HackerSchool/ledscreen/LEDBot/emoji/calendar.png'
p412
sS':sparkling_heart:'
p413
S'/Users/dana1/HackerSchool/ledscreen/LEDBot/emoji/sparkling_heart.png'
p414
sS':end:'
p415
S'/Users/dana1/HackerSchool/ledscreen/LEDBot/emoji/end.png'
p416
sS':black_medium_square:'
p417
S'/Users/dana1/HackerSchool/ledscreen/LEDBot/emoji/black_medium_square.png'
p418
sS':boom:'
p419
S'/Users/dana1/HackerSchool/ledscreen/LEDBot/emoji/boom.png'
p420
sS':point_right:'
p421
S'/Users/dana1/HackerSchool/ledscreen/LEDBot/emoji/point_right.png'
p422
sS':man_with_turban:'
p423
S'/Users/dana1/HackerSchool/ledscreen/LEDBot/emoji/man_with_turban.png'
p424
sS':sunny:'
p425
S'/Users/dana1/HackerSchool/ledscreen/LEDBot/emoji/sunny.png'
p426
sS':triangular_flag_on_post:'
p427
S'/Users/dana1/HackerSchool/ledscreen/LEDBot/emoji/triangular_flag_on_post.png'
p428
sS':oncoming_taxi:'
p429
S'/Users/dana1/HackerSchool/ledscreen/LEDBot/emoji/oncoming_taxi.png'
p430
sS':fried_shrimp:'
p431
S'/Users/dana1/HackerSchool/ledscreen/LEDBot/emoji/fried_shrimp.png'
p432
sS':small_red_triangle_down:'
p433
S'/Users/dana1/HackerSchool/ledscreen/LEDBot/emoji/small_red_triangle_down.png'
p434
sS':interrobang:'
p435
S'/Users/dana1/HackerSchool/ledscreen/LEDBot/emoji/interrobang.png'
p436
sS':blossom:'
p437
S'/Users/dana1/HackerSchool/ledscreen/LEDBot/emoji/blossom.png'
p438
sS':black_large_square:'
p439
S'/Users/dana1/HackerSchool/ledscreen/LEDBot/emoji/black_large_square.png'
p440
sS':no_mobile_phones:'
p441
S'/Users/dana1/HackerSchool/ledscreen/LEDBot/emoji/no_mobile_phones.png'
p442
sS':anguished:'
p443
S'/Users/dana1/HackerSchool/ledscreen/LEDBot/emoji/anguished.png'
p444
sS':left_right_arrow:'
p445
S'/Users/dana1/HackerSchool/ledscreen/LEDBot/emoji/left_right_arrow.png'
p446
sS':non-potable_water:'
p447
S'/Users/dana1/HackerSchool/ledscreen/LEDBot/emoji/non-potable_water.png'
p448
sS':stew:'
p449
S'/Users/dana1/HackerSchool/ledscreen/LEDBot/emoji/stew.png'
p450
sS':horse_racing:'
p451
S'/Users/dana1/HackerSchool/ledscreen/LEDBot/emoji/horse_racing.png'
p452
sS':droplet:'
p453
S'/Users/dana1/HackerSchool/ledscreen/LEDBot/emoji/droplet.png'
p454
sS':womans_clothes:'
p455
S'/Users/dana1/HackerSchool/ledscreen/LEDBot/emoji/womans_clothes.png'
p456
sS':oncoming_police_car:'
p457
S'/Users/dana1/HackerSchool/ledscreen/LEDBot/emoji/oncoming_police_car.png'
p458
sS':name_badge:'
p459
S'/Users/dana1/HackerSchool/ledscreen/LEDBot/emoji/name_badge.png'
p460
sS':crown:'
p461
S'/Users/dana1/HackerSchool/ledscreen/LEDBot/emoji/crown.png'
p462
sS':package:'
p463
S'/Users/dana1/HackerSchool/ledscreen/LEDBot/emoji/package.png'
p464
sS':partly_sunny:'
p465
S'/Users/dana1/HackerSchool/ledscreen/LEDBot/emoji/partly_sunny.png'
p466
sS':arrow_double_down:'
p467
S'/Users/dana1/HackerSchool/ledscreen/LEDBot/emoji/arrow_double_down.png'
p468
sS':signal_strength:'
p469
S'/Users/dana1/HackerSchool/ledscreen/LEDBot/emoji/signal_strength.png'
p470
sS':musical_score:'
p471
S'/Users/dana1/HackerSchool/ledscreen/LEDBot/emoji/musical_score.png'
p472
sS':point_down:'
p473
S'/Users/dana1/HackerSchool/ledscreen/LEDBot/emoji/point_down.png'
p474
sS':helicopter:'
p475
S'/Users/dana1/HackerSchool/ledscreen/LEDBot/emoji/helicopter.png'
p476
sS':nose:'
p477
S'/Users/dana1/HackerSchool/ledscreen/LEDBot/emoji/nose.png'
p478
sS':speech_balloon:'
p479
S'/Users/dana1/HackerSchool/ledscreen/LEDBot/emoji/speech_balloon.png'
p480
sS':snowboarder:'
p481
S'/Users/dana1/HackerSchool/ledscreen/LEDBot/emoji/snowboarder.png'
p482
sS':diamonds:'
p483
S'/Users/dana1/HackerSchool/ledscreen/LEDBot/emoji/diamonds.png'
p484
sS':postal_horn:'
p485
S'/Users/dana1/HackerSchool/ledscreen/LEDBot/emoji/postal_horn.png'
p486
sS':water_buffalo:'
p487
S'/Users/dana1/HackerSchool/ledscreen/LEDBot/emoji/water_buffalo.png'
p488
sS':bomb:'
p489
S'/Users/dana1/HackerSchool/ledscreen/LEDBot/emoji/bomb.png'
p490
sS':ballot_box_with_check:'
p491
S'/Users/dana1/HackerSchool/ledscreen/LEDBot/emoji/ballot_box_with_check.png'
p492
sS':fallen_leaf:'
p493
S'/Users/dana1/HackerSchool/ledscreen/LEDBot/emoji/fallen_leaf.png'
p494
sS':ticket:'
p495
S'/Users/dana1/HackerSchool/ledscreen/LEDBot/emoji/ticket.png'
p496
sS':statue_of_liberty:'
p497
S'/Users/dana1/HackerSchool/ledscreen/LEDBot/emoji/statue_of_liberty.png'
p498
sS':airplane:'
p499
S'/Users/dana1/HackerSchool/ledscreen/LEDBot/emoji/airplane.png'
p500
sS':hash:'
p501
S'/Users/dana1/HackerSchool/ledscreen/LEDBot/emoji/hash.png'
p502
sS':negative_squared_cross_mark:'
p503
S'/Users/dana1/HackerSchool/ledscreen/LEDBot/emoji/negative_squared_cross_mark.png'
p504
sS':alien:'
p505
S'/Users/dana1/HackerSchool/ledscreen/LEDBot/emoji/alien.png'
p506
sS':mountain_cableway:'
p507
S'/Users/dana1/HackerSchool/ledscreen/LEDBot/emoji/mountain_cableway.png'
p508
sS':moyai:'
p509
S'/Users/dana1/HackerSchool/ledscreen/LEDBot/emoji/moyai.png'
p510
sS':wink:'
p511
S'/Users/dana1/HackerSchool/ledscreen/LEDBot/emoji/wink.png'
p512
sS':wolf:'
p513
S'/Users/dana1/HackerSchool/ledscreen/LEDBot/emoji/wolf.png'
p514
sS':monorail:'
p515
S'/Users/dana1/HackerSchool/ledscreen/LEDBot/emoji/monorail.png'
p516
sS':unlock:'
p517
S'/Users/dana1/HackerSchool/ledscreen/LEDBot/emoji/unlock.png'
p518
sS':no_mouth:'
p519
S'/Users/dana1/HackerSchool/ledscreen/LEDBot/emoji/no_mouth.png'
p520
sS':baby_bottle:'
p521
S'/Users/dana1/HackerSchool/ledscreen/LEDBot/emoji/baby_bottle.png'
p522
sS':japan:'
p523
S'/Users/dana1/HackerSchool/ledscreen/LEDBot/emoji/japan.png'
p524
sS':sweet_potato:'
p525
S'/Users/dana1/HackerSchool/ledscreen/LEDBot/emoji/sweet_potato.png'
p526
sS':eight_spoked_asterisk:'
p527
S'/Users/dana1/HackerSchool/ledscreen/LEDBot/emoji/eight_spoked_asterisk.png'
p528
sS':ophiuchus:'
p529
S'/Users/dana1/HackerSchool/ledscreen/LEDBot/emoji/ophiuchus.png'
p530
sS':mag_right:'
p531
S'/Users/dana1/HackerSchool/ledscreen/LEDBot/emoji/mag_right.png'
p532
sS':snowflake:'
p533
S'/Users/dana1/HackerSchool/ledscreen/LEDBot/emoji/snowflake.png'
p534
sS':registered:'
p535
S'/Users/dana1/HackerSchool/ledscreen/LEDBot/emoji/registered.png'
p536
sS':arrow_heading_down:'
p537
S'/Users/dana1/HackerSchool/ledscreen/LEDBot/emoji/arrow_heading_down.png'
p538
sS':train:'
p539
S'/Users/dana1/HackerSchool/ledscreen/LEDBot/emoji/train.png'
p540
sS':blue_car:'
p541
S'/Users/dana1/HackerSchool/ledscreen/LEDBot/emoji/blue_car.png'
p542
sS':minibus:'
p543
S'/Users/dana1/HackerSchool/ledscreen/LEDBot/emoji/minibus.png'
p544
sS':flushed:'
p545
S'/Users/dana1/HackerSchool/ledscreen/LEDBot/emoji/flushed.png'
p546
sS':fax:'
p547
S'/Users/dana1/HackerSchool/ledscreen/LEDBot/emoji/fax.png'
p548
sS':scream:'
p549
S'/Users/dana1/HackerSchool/ledscreen/LEDBot/emoji/scream.png'
p550
sS':older_man:'
p551
S'/Users/dana1/HackerSchool/ledscreen/LEDBot/emoji/older_man.png'
p552
sS':earth_asia:'
p553
S'/Users/dana1/HackerSchool/ledscreen/LEDBot/emoji/earth_asia.png'
p554
sS':custard:'
p555
S'/Users/dana1/HackerSchool/ledscreen/LEDBot/emoji/custard.png'
p556
sS':mailbox:'
p557
S'/Users/dana1/HackerSchool/ledscreen/LEDBot/emoji/mailbox.png'
p558
sS':hotsprings:'
p559
S'/Users/dana1/HackerSchool/ledscreen/LEDBot/emoji/hotsprings.png'
p560
sS':tulip:'
p561
S'/Users/dana1/HackerSchool/ledscreen/LEDBot/emoji/tulip.png'
p562
sS':mans_shoe:'
p563
S'/Users/dana1/HackerSchool/ledscreen/LEDBot/emoji/mans_shoe.png'
p564
sS':ski:'
p565
S'/Users/dana1/HackerSchool/ledscreen/LEDBot/emoji/ski.png'
p566
sS':hospital:'
p567
S'/Users/dana1/HackerSchool/ledscreen/LEDBot/emoji/hospital.png'
p568
sS':books:'
p569
S'/Users/dana1/HackerSchool/ledscreen/LEDBot/emoji/books.png'
p570
sS':foggy:'
p571
S'/Users/dana1/HackerSchool/ledscreen/LEDBot/emoji/foggy.png'
p572
sS':bread:'
p573
S'/Users/dana1/HackerSchool/ledscreen/LEDBot/emoji/bread.png'
p574
sS':notes:'
p575
S'/Users/dana1/HackerSchool/ledscreen/LEDBot/emoji/notes.png'
p576
sS':fish_cake:'
p577
S'/Users/dana1/HackerSchool/ledscreen/LEDBot/emoji/fish_cake.png'
p578
sS':sushi:'
p579
S'/Users/dana1/HackerSchool/ledscreen/LEDBot/emoji/sushi.png'
p580
sS':couplekiss:'
p581
S'/Users/dana1/HackerSchool/ledscreen/LEDBot/emoji/couplekiss.png'
p582
sS':bow:'
p583
S'/Users/dana1/HackerSchool/ledscreen/LEDBot/emoji/bow.png'
p584
sS':bear:'
p585
S'/Users/dana1/HackerSchool/ledscreen/LEDBot/emoji/bear.png'
p586
sS':date:'
p587
S'/Users/dana1/HackerSchool/ledscreen/LEDBot/emoji/date.png'
p588
sS':tokyo_tower:'
p589
S'/Users/dana1/HackerSchool/ledscreen/LEDBot/emoji/tokyo_tower.png'
p590
sS':tropical_drink:'
p591
S'/Users/dana1/HackerSchool/ledscreen/LEDBot/emoji/tropical_drink.png'
p592
sS':black_nib:'
p593
S'/Users/dana1/HackerSchool/ledscreen/LEDBot/emoji/black_nib.png'
p594
sS':tent:'
p595
S'/Users/dana1/HackerSchool/ledscreen/LEDBot/emoji/tent.png'
p596
sS':loop:'
p597
S'/Users/dana1/HackerSchool/ledscreen/LEDBot/emoji/loop.png'
p598
sS':confused:'
p599
S'/Users/dana1/HackerSchool/ledscreen/LEDBot/emoji/confused.png'
p600
sS':information_desk_person:'
p601
S'/Users/dana1/HackerSchool/ledscreen/LEDBot/emoji/information_desk_person.png'
p602
sS':pill:'
p603
S'/Users/dana1/HackerSchool/ledscreen/LEDBot/emoji/pill.png'
p604
sS':sunrise:'
p605
S'/Users/dana1/HackerSchool/ledscreen/LEDBot/emoji/sunrise.png'
p606
sS':back:'
p607
S'/Users/dana1/HackerSchool/ledscreen/LEDBot/emoji/back.png'
p608
sS':key:'
p609
S'/Users/dana1/HackerSchool/ledscreen/LEDBot/emoji/key.png'
p610
sS':surfer:'
p611
S'/Users/dana1/HackerSchool/ledscreen/LEDBot/emoji/surfer.png'
p612
sS':heavy_check_mark:'
p613
S'/Users/dana1/HackerSchool/ledscreen/LEDBot/emoji/heavy_check_mark.png'
p614
sS':electric_plug:'
p615
S'/Users/dana1/HackerSchool/ledscreen/LEDBot/emoji/electric_plug.png'
p616
sS':speak_no_evil:'
p617
S'/Users/dana1/HackerSchool/ledscreen/LEDBot/emoji/speak_no_evil.png'
p618
sS':ambulance:'
p619
S'/Users/dana1/HackerSchool/ledscreen/LEDBot/emoji/ambulance.png'
p620
sS':radio_button:'
p621
S'/Users/dana1/HackerSchool/ledscreen/LEDBot/emoji/radio_button.png'
p622
sS':flipper:'
p623
S'/Users/dana1/HackerSchool/ledscreen/LEDBot/emoji/flipper.png'
p624
sS':star:'
p625
S'/Users/dana1/HackerSchool/ledscreen/LEDBot/emoji/star.png'
p626
sS':black_square:'
p627
S'/Users/dana1/HackerSchool/ledscreen/LEDBot/emoji/black_square.png'
p628
sS':melon:'
p629
S'/Users/dana1/HackerSchool/ledscreen/LEDBot/emoji/melon.png'
p630
sS':construction:'
p631
S'/Users/dana1/HackerSchool/ledscreen/LEDBot/emoji/construction.png'
p632
sS':grin:'
p633
S'/Users/dana1/HackerSchool/ledscreen/LEDBot/emoji/grin.png'
p634
sS':gemini:'
p635
S'/Users/dana1/HackerSchool/ledscreen/LEDBot/emoji/gemini.png'
p636
sS':accept:'
p637
S'/Users/dana1/HackerSchool/ledscreen/LEDBot/emoji/accept.png'
p638
sS':bee:'
p639
S'/Users/dana1/HackerSchool/ledscreen/LEDBot/emoji/bee.png'
p640
sS':round_pushpin:'
p641
S'/Users/dana1/HackerSchool/ledscreen/LEDBot/emoji/round_pushpin.png'
p642
sS':ideograph_advantage:'
p643
S'/Users/dana1/HackerSchool/ledscreen/LEDBot/emoji/ideograph_advantage.png'
p644
sS':spaghetti:'
p645
S'/Users/dana1/HackerSchool/ledscreen/LEDBot/emoji/spaghetti.png'
p646
sS':pig2:'
p647
S'/Users/dana1/HackerSchool/ledscreen/LEDBot/emoji/pig2.png'
p648
sS':underage:'
p649
S'/Users/dana1/HackerSchool/ledscreen/LEDBot/emoji/underage.png'
p650
sS':no_entry_sign:'
p651
S'/Users/dana1/HackerSchool/ledscreen/LEDBot/emoji/no_entry_sign.png'
p652
sS':lantern:'
p653
S'/Users/dana1/HackerSchool/ledscreen/LEDBot/emoji/lantern.png'
p654
sS':convenience_store:'
p655
S'/Users/dana1/HackerSchool/ledscreen/LEDBot/emoji/convenience_store.png'
p656
sS':sunrise_over_mountains:'
p657
S'/Users/dana1/HackerSchool/ledscreen/LEDBot/emoji/sunrise_over_mountains.png'
p658
sS':free:'
p659
S'/Users/dana1/HackerSchool/ledscreen/LEDBot/emoji/free.png'
p660
sS':mag:'
p661
S'/Users/dana1/HackerSchool/ledscreen/LEDBot/emoji/mag.png'
p662
sS':watermelon:'
p663
S'/Users/dana1/HackerSchool/ledscreen/LEDBot/emoji/watermelon.png'
p664
sS':white_flower:'
p665
S'/Users/dana1/HackerSchool/ledscreen/LEDBot/emoji/white_flower.png'
p666
sS':ram:'
p667
S'/Users/dana1/HackerSchool/ledscreen/LEDBot/emoji/ram.png'
p668
sS':dancer:'
p669
S'/Users/dana1/HackerSchool/ledscreen/LEDBot/emoji/dancer.png'
p670
sS':innocent:'
p671
S'/Users/dana1/HackerSchool/ledscreen/LEDBot/emoji/innocent.png'
p672
sS':yellow_heart:'
p673
S'/Users/dana1/HackerSchool/ledscreen/LEDBot/emoji/yellow_heart.png'
p674
sS':sos:'
p675
S'/Users/dana1/HackerSchool/ledscreen/LEDBot/emoji/sos.png'
p676
sS':triangular_ruler:'
p677
S'/Users/dana1/HackerSchool/ledscreen/LEDBot/emoji/triangular_ruler.png'
p678
sS':tada:'
p679
S'/Users/dana1/HackerSchool/ledscreen/LEDBot/emoji/tada.png'
p680
sS':heavy_multiplication_x:'
p681
S'/Users/dana1/HackerSchool/ledscreen/LEDBot/emoji/heavy_multiplication_x.png'
p682
sS':frowning:'
p683
S'/Users/dana1/HackerSchool/ledscreen/LEDBot/emoji/frowning.png'
p684
sS':hand:'
p685
S'/Users/dana1/HackerSchool/ledscreen/LEDBot/emoji/hand.png'
p686
sS':cancer:'
p687
S'/Users/dana1/HackerSchool/ledscreen/LEDBot/emoji/cancer.png'
p688
sS':tshirt:'
p689
S'/Users/dana1/HackerSchool/ledscreen/LEDBot/emoji/tshirt.png'
p690
sS':do_not_litter:'
p691
S'/Users/dana1/HackerSchool/ledscreen/LEDBot/emoji/do_not_litter.png'
p692
sS':arrow_forward:'
p693
S'/Users/dana1/HackerSchool/ledscreen/LEDBot/emoji/arrow_forward.png'
p694
sS':smile_cat:'
p695
S'/Users/dana1/HackerSchool/ledscreen/LEDBot/emoji/smile_cat.png'
p696
sS':nut_and_bolt:'
p697
S'/Users/dana1/HackerSchool/ledscreen/LEDBot/emoji/nut_and_bolt.png'
p698
sS':restroom:'
p699
S'/Users/dana1/HackerSchool/ledscreen/LEDBot/emoji/restroom.png'
p700
sS':woman:'
p701
S'/Users/dana1/HackerSchool/ledscreen/LEDBot/emoji/woman.png'
p702
sS':camera:'
p703
S'/Users/dana1/HackerSchool/ledscreen/LEDBot/emoji/camera.png'
p704
sS':potable_water:'
p705
S'/Users/dana1/HackerSchool/ledscreen/LEDBot/emoji/potable_water.png'
p706
sS':athletic_shoe:'
p707
S'/Users/dana1/HackerSchool/ledscreen/LEDBot/emoji/athletic_shoe.png'
p708
sS':top:'
p709
S'/Users/dana1/HackerSchool/ledscreen/LEDBot/emoji/top.png'
p710
sS':joy_cat:'
p711
S'/Users/dana1/HackerSchool/ledscreen/LEDBot/emoji/joy_cat.png'
p712
sS':bathtub:'
p713
S'/Users/dana1/HackerSchool/ledscreen/LEDBot/emoji/bathtub.png'
p714
sS':arrow_upper_left:'
p715
S'/Users/dana1/HackerSchool/ledscreen/LEDBot/emoji/arrow_upper_left.png'
p716
sS':two:'
p717
S'/Users/dana1/HackerSchool/ledscreen/LEDBot/emoji/two.png'
p718
sS':loudspeaker:'
p719
S'/Users/dana1/HackerSchool/ledscreen/LEDBot/emoji/loudspeaker.png'
p720
sS':apple:'
p721
S'/Users/dana1/HackerSchool/ledscreen/LEDBot/emoji/apple.png'
p722
sS':balloon:'
p723
S'/Users/dana1/HackerSchool/ledscreen/LEDBot/emoji/balloon.png'
p724
sS':low_brightness:'
p725
S'/Users/dana1/HackerSchool/ledscreen/LEDBot/emoji/low_brightness.png'
p726
sS':no_entry:'
p727
S'/Users/dana1/HackerSchool/ledscreen/LEDBot/emoji/no_entry.png'
p728
sS':pizza:'
p729
S'/Users/dana1/HackerSchool/ledscreen/LEDBot/emoji/pizza.png'
p730
sS':new_moon:'
p731
S'/Users/dana1/HackerSchool/ledscreen/LEDBot/emoji/new_moon.png'
p732
sS':tiger2:'
p733
S'/Users/dana1/HackerSchool/ledscreen/LEDBot/emoji/tiger2.png'
p734
sS':womans_hat:'
p735
S'/Users/dana1/HackerSchool/ledscreen/LEDBot/emoji/womans_hat.png'
p736
sS':sake:'
p737
S'/Users/dana1/HackerSchool/ledscreen/LEDBot/emoji/sake.png'
p738
sS':confetti_ball:'
p739
S'/Users/dana1/HackerSchool/ledscreen/LEDBot/emoji/confetti_ball.png'
p740
sS':closed_book:'
p741
S'/Users/dana1/HackerSchool/ledscreen/LEDBot/emoji/closed_book.png'
p742
sS':icecream:'
p743
S'/Users/dana1/HackerSchool/ledscreen/LEDBot/emoji/icecream.png'
p744
sS':moon:'
p745
S'/Users/dana1/HackerSchool/ledscreen/LEDBot/emoji/moon.png'
p746
sS':skull:'
p747
S'/Users/dana1/HackerSchool/ledscreen/LEDBot/emoji/skull.png'
p748
sS':fork_and_knife:'
p749
S'/Users/dana1/HackerSchool/ledscreen/LEDBot/emoji/fork_and_knife.png'
p750
sS':maple_leaf:'
p751
S'/Users/dana1/HackerSchool/ledscreen/LEDBot/emoji/maple_leaf.png'
p752
sS':bank:'
p753
S'/Users/dana1/HackerSchool/ledscreen/LEDBot/emoji/bank.png'
p754
sS':busstop:'
p755
S'/Users/dana1/HackerSchool/ledscreen/LEDBot/emoji/busstop.png'
p756
sS':hackerschool:'
p757
S'https://external-content.zulipcdn.net/1fd50dd9cd66190492ee5c1f3c82b49a5f6fdf45/687474703a2f2f7765622e6d69742e6564752f6a657373746573732f7777772f7265616c6d656d6f6a692f6861636b65727363686f6f6c2e706e67'
p758
sS':fire:'
p759
S'/Users/dana1/HackerSchool/ledscreen/LEDBot/emoji/fire.png'
p760
sS':iphone:'
p761
S'/Users/dana1/HackerSchool/ledscreen/LEDBot/emoji/iphone.png'
p762
sS':stuck_out_tongue:'
p763
S'/Users/dana1/HackerSchool/ledscreen/LEDBot/emoji/stuck_out_tongue.png'
p764
sS':snake:'
p765
S'/Users/dana1/HackerSchool/ledscreen/LEDBot/emoji/snake.png'
p766
sS':bookmark_tabs:'
p767
S'/Users/dana1/HackerSchool/ledscreen/LEDBot/emoji/bookmark_tabs.png'
p768
sS':mouse:'
p769
S'/Users/dana1/HackerSchool/ledscreen/LEDBot/emoji/mouse.png'
p770
sS':syringe:'
p771
S'/Users/dana1/HackerSchool/ledscreen/LEDBot/emoji/syringe.png'
p772
sS':cold_sweat:'
p773
S'/Users/dana1/HackerSchool/ledscreen/LEDBot/emoji/cold_sweat.png'
p774
sS':leopard:'
p775
S'/Users/dana1/HackerSchool/ledscreen/LEDBot/emoji/leopard.png'
p776
sS':rice_ball:'
p777
S'/Users/dana1/HackerSchool/ledscreen/LEDBot/emoji/rice_ball.png'
p778
sS':snowman:'
p779
S'/Users/dana1/HackerSchool/ledscreen/LEDBot/emoji/snowman.png'
p780
sS':clapper:'
p781
S'/Users/dana1/HackerSchool/ledscreen/LEDBot/emoji/clapper.png'
p782
sS':barber:'
p783
S'/Users/dana1/HackerSchool/ledscreen/LEDBot/emoji/barber.png'
p784
sS':running_shirt_with_sash:'
p785
S'/Users/dana1/HackerSchool/ledscreen/LEDBot/emoji/running_shirt_with_sash.png'
p786
sS':bowling:'
p787
S'/Users/dana1/HackerSchool/ledscreen/LEDBot/emoji/bowling.png'
p788
sS':tram:'
p789
S'/Users/dana1/HackerSchool/ledscreen/LEDBot/emoji/tram.png'
p790
sS':aquarius:'
p791
S'/Users/dana1/HackerSchool/ledscreen/LEDBot/emoji/aquarius.png'
p792
sS':angry:'
p793
S'/Users/dana1/HackerSchool/ledscreen/LEDBot/emoji/angry.png'
p794
sS':gift:'
p795
S'/Users/dana1/HackerSchool/ledscreen/LEDBot/emoji/gift.png'
p796
sS':telescope:'
p797
S'/Users/dana1/HackerSchool/ledscreen/LEDBot/emoji/telescope.png'
p798
sS':rose:'
p799
S'/Users/dana1/HackerSchool/ledscreen/LEDBot/emoji/rose.png'
p800
sS':scorpius:'
p801
S'/Users/dana1/HackerSchool/ledscreen/LEDBot/emoji/scorpius.png'
p802
sS':one:'
p803
S'/Users/dana1/HackerSchool/ledscreen/LEDBot/emoji/one.png'
p804
sS':8ball:'
p805
S'/Users/dana1/HackerSchool/ledscreen/LEDBot/emoji/8ball.png'
p806
sS':bamboo:'
p807
S'/Users/dana1/HackerSchool/ledscreen/LEDBot/emoji/bamboo.png'
p808
sS':chestnut:'
p809
S'/Users/dana1/HackerSchool/ledscreen/LEDBot/emoji/chestnut.png'
p810
sS':game_die:'
p811
S'/Users/dana1/HackerSchool/ledscreen/LEDBot/emoji/game_die.png'
p812
sS':sweat:'
p813
S'/Users/dana1/HackerSchool/ledscreen/LEDBot/emoji/sweat.png'
p814
sS':sleepy:'
p815
S'/Users/dana1/HackerSchool/ledscreen/LEDBot/emoji/sleepy.png'
p816
sS':smiling_imp:'
p817
S'/Users/dana1/HackerSchool/ledscreen/LEDBot/emoji/smiling_imp.png'
p818
sS':anchor:'
p819
S'/Users/dana1/HackerSchool/ledscreen/LEDBot/emoji/anchor.png'
p820
sS':collision:'
p821
S'/Users/dana1/HackerSchool/ledscreen/LEDBot/emoji/collision.png'
p822
sS':heavy_dollar_sign:'
p823
S'/Users/dana1/HackerSchool/ledscreen/LEDBot/emoji/heavy_dollar_sign.png'
p824
sS':euro:'
p825
S'/Users/dana1/HackerSchool/ledscreen/LEDBot/emoji/euro.png'
p826
sS':dress:'
p827
S'/Users/dana1/HackerSchool/ledscreen/LEDBot/emoji/dress.png'
p828
sS':white_large_square:'
p829
S'/Users/dana1/HackerSchool/ledscreen/LEDBot/emoji/white_large_square.png'
p830
sS':disappointed_relieved:'
p831
S'/Users/dana1/HackerSchool/ledscreen/LEDBot/emoji/disappointed_relieved.png'
p832
sS':whale2:'
p833
S'/Users/dana1/HackerSchool/ledscreen/LEDBot/emoji/whale2.png'
p834
sS':punch:'
p835
S'/Users/dana1/HackerSchool/ledscreen/LEDBot/emoji/punch.png'
p836
sS':yen:'
p837
S'/Users/dana1/HackerSchool/ledscreen/LEDBot/emoji/yen.png'
p838
sS':bicyclist:'
p839
S'/Users/dana1/HackerSchool/ledscreen/LEDBot/emoji/bicyclist.png'
p840
sS':zulip:'
p841
S'/Users/dana1/HackerSchool/ledscreen/LEDBot/emoji/zulip.png'
p842
sS':steam_locomotive:'
p843
S'/Users/dana1/HackerSchool/ledscreen/LEDBot/emoji/steam_locomotive.png'
p844
sS':baby_chick:'
p845
S'/Users/dana1/HackerSchool/ledscreen/LEDBot/emoji/baby_chick.png'
p846
sS':speedboat:'
p847
S'/Users/dana1/HackerSchool/ledscreen/LEDBot/emoji/speedboat.png'
p848
sS':closed_lock_with_key:'
p849
S'/Users/dana1/HackerSchool/ledscreen/LEDBot/emoji/closed_lock_with_key.png'
p850
sS':performing_arts:'
p851
S'/Users/dana1/HackerSchool/ledscreen/LEDBot/emoji/performing_arts.png'
p852
sS':house:'
p853
S'/Users/dana1/HackerSchool/ledscreen/LEDBot/emoji/house.png'
p854
sS':japanese_ogre:'
p855
S'/Users/dana1/HackerSchool/ledscreen/LEDBot/emoji/japanese_ogre.png'
p856
sS':lock:'
p857
S'/Users/dana1/HackerSchool/ledscreen/LEDBot/emoji/lock.png'
p858
sS':pencil:'
p859
S'/Users/dana1/HackerSchool/ledscreen/LEDBot/emoji/pencil.png'
p860
sS':newspaper:'
p861
S'/Users/dana1/HackerSchool/ledscreen/LEDBot/emoji/newspaper.png'
p862
sS':orange_book:'
p863
S'/Users/dana1/HackerSchool/ledscreen/LEDBot/emoji/orange_book.png'
p864
sS':bar_chart:'
p865
S'/Users/dana1/HackerSchool/ledscreen/LEDBot/emoji/bar_chart.png'
p866
sS':battery:'
p867
S'/Users/dana1/HackerSchool/ledscreen/LEDBot/emoji/battery.png'
p868
sS':kissing_heart:'
p869
S'/Users/dana1/HackerSchool/ledscreen/LEDBot/emoji/kissing_heart.png'
p870
sS':facepunch:'
p871
S'/Users/dana1/HackerSchool/ledscreen/LEDBot/emoji/facepunch.png'
p872
sS':cactus:'
p873
S'/Users/dana1/HackerSchool/ledscreen/LEDBot/emoji/cactus.png'
p874
sS':honey_pot:'
p875
S'/Users/dana1/HackerSchool/ledscreen/LEDBot/emoji/honey_pot.png'
p876
sS':cry:'
p877
S'/Users/dana1/HackerSchool/ledscreen/LEDBot/emoji/cry.png'
p878
sS':door:'
p879
S'/Users/dana1/HackerSchool/ledscreen/LEDBot/emoji/door.png'
p880
sS':cherries:'
p881
S'/Users/dana1/HackerSchool/ledscreen/LEDBot/emoji/cherries.png'
p882
sS':mailbox_with_no_mail:'
p883
S'/Users/dana1/HackerSchool/ledscreen/LEDBot/emoji/mailbox_with_no_mail.png'
p884
sS':parking:'
p885
S'/Users/dana1/HackerSchool/ledscreen/LEDBot/emoji/parking.png'
p886
sS':trophy:'
p887
S'/Users/dana1/HackerSchool/ledscreen/LEDBot/emoji/trophy.png'
p888
sS':european_post_office:'
p889
S'/Users/dana1/HackerSchool/ledscreen/LEDBot/emoji/european_post_office.png'
p890
sS':cupid:'
p891
S'/Users/dana1/HackerSchool/ledscreen/LEDBot/emoji/cupid.png'
p892
sS':space_invader:'
p893
S'/Users/dana1/HackerSchool/ledscreen/LEDBot/emoji/space_invader.png'
p894
sS':fries:'
p895
S'/Users/dana1/HackerSchool/ledscreen/LEDBot/emoji/fries.png'
p896
sS':musical_note:'
p897
S'/Users/dana1/HackerSchool/ledscreen/LEDBot/emoji/musical_note.png'
p898
sS':guardsman:'
p899
S'/Users/dana1/HackerSchool/ledscreen/LEDBot/emoji/guardsman.png'
p900
sS':umbrella:'
p901
S'/Users/dana1/HackerSchool/ledscreen/LEDBot/emoji/umbrella.png'
p902
sS':love_hotel:'
p903
S'/Users/dana1/HackerSchool/ledscreen/LEDBot/emoji/love_hotel.png'
p904
sS':red_circle:'
p905
S'/Users/dana1/HackerSchool/ledscreen/LEDBot/emoji/red_circle.png'
p906
sS':sparkles:'
p907
S'/Users/dana1/HackerSchool/ledscreen/LEDBot/emoji/sparkles.png'
p908
sS':mountain_bicyclist:'
p909
S'/Users/dana1/HackerSchool/ledscreen/LEDBot/emoji/mountain_bicyclist.png'
p910
sS':octopus:'
p911
S'/Users/dana1/HackerSchool/ledscreen/LEDBot/emoji/octopus.png'
p912
sS':secret:'
p913
S'/Users/dana1/HackerSchool/ledscreen/LEDBot/emoji/secret.png'
p914
sS':satisfied:'
p915
S'/Users/dana1/HackerSchool/ledscreen/LEDBot/emoji/satisfied.png'
p916
sS':leftwards_arrow_with_hook:'
p917
S'/Users/dana1/HackerSchool/ledscreen/LEDBot/emoji/leftwards_arrow_with_hook.png'
p918
sS':fishing_pole_and_fish:'
p919
S'/Users/dana1/HackerSchool/ledscreen/LEDBot/emoji/fishing_pole_and_fish.png'
p920
sS':violin:'
p921
S'/Users/dana1/HackerSchool/ledscreen/LEDBot/emoji/violin.png'
p922
sS':chart_with_upwards_trend:'
p923
S'/Users/dana1/HackerSchool/ledscreen/LEDBot/emoji/chart_with_upwards_trend.png'
p924
sS':walking:'
p925
S'/Users/dana1/HackerSchool/ledscreen/LEDBot/emoji/walking.png'
p926
sS':wedding:'
p927
S'/Users/dana1/HackerSchool/ledscreen/LEDBot/emoji/wedding.png'
p928
sS':person_frowning:'
p929
S'/Users/dana1/HackerSchool/ledscreen/LEDBot/emoji/person_frowning.png'
p930
sS':heavy_plus_sign:'
p931
S'/Users/dana1/HackerSchool/ledscreen/LEDBot/emoji/heavy_plus_sign.png'
p932
sS':beginner:'
p933
S'/Users/dana1/HackerSchool/ledscreen/LEDBot/emoji/beginner.png'
p934
sS':four_leaf_clover:'
p935
S'/Users/dana1/HackerSchool/ledscreen/LEDBot/emoji/four_leaf_clover.png'
p936
sS':chicken:'
p937
S'/Users/dana1/HackerSchool/ledscreen/LEDBot/emoji/chicken.png'
p938
sS':vertical_traffic_light:'
p939
S'/Users/dana1/HackerSchool/ledscreen/LEDBot/emoji/vertical_traffic_light.png'
p940
sS':taurus:'
p941
S'/Users/dana1/HackerSchool/ledscreen/LEDBot/emoji/taurus.png'
p942
sS':last_quarter_moon_with_face:'
p943
S'/Users/dana1/HackerSchool/ledscreen/LEDBot/emoji/last_quarter_moon_with_face.png'
p944
sS':banana:'
p945
S'/Users/dana1/HackerSchool/ledscreen/LEDBot/emoji/banana.png'
p946
sS':arrow_up_down:'
p947
S'/Users/dana1/HackerSchool/ledscreen/LEDBot/emoji/arrow_up_down.png'
p948
sS':book:'
p949
S'/Users/dana1/HackerSchool/ledscreen/LEDBot/emoji/book.png'
p950
sS':video_camera:'
p951
S'/Users/dana1/HackerSchool/ledscreen/LEDBot/emoji/video_camera.png'
p952
sS':capricorn:'
p953
S'/Users/dana1/HackerSchool/ledscreen/LEDBot/emoji/capricorn.png'
p954
sS':christmas_tree:'
p955
S'/Users/dana1/HackerSchool/ledscreen/LEDBot/emoji/christmas_tree.png'
p956
sS':paperclip:'
p957
S'/Users/dana1/HackerSchool/ledscreen/LEDBot/emoji/paperclip.png'
p958
sS':person_with_blond_hair:'
p959
S'/Users/dana1/HackerSchool/ledscreen/LEDBot/emoji/person_with_blond_hair.png'
p960
sS':cow2:'
p961
S'/Users/dana1/HackerSchool/ledscreen/LEDBot/emoji/cow2.png'
p962
sS':ocean:'
p963
S'/Users/dana1/HackerSchool/ledscreen/LEDBot/emoji/ocean.png'
p964
sS':stuck_out_tongue_closed_eyes:'
p965
S'/Users/dana1/HackerSchool/ledscreen/LEDBot/emoji/stuck_out_tongue_closed_eyes.png'
p966
sS':six:'
p967
S'/Users/dana1/HackerSchool/ledscreen/LEDBot/emoji/six.png'
p968
sS':star2:'
p969
S'/Users/dana1/HackerSchool/ledscreen/LEDBot/emoji/star2.png'
p970
sS':link:'
p971
S'/Users/dana1/HackerSchool/ledscreen/LEDBot/emoji/link.png'
p972
sS':muscle:'
p973
S'/Users/dana1/HackerSchool/ledscreen/LEDBot/emoji/muscle.png'
p974
sS':sob:'
p975
S'/Users/dana1/HackerSchool/ledscreen/LEDBot/emoji/sob.png'
p976
sS':older_woman:'
p977
S'/Users/dana1/HackerSchool/ledscreen/LEDBot/emoji/older_woman.png'
p978
sS':soccer:'
p979
S'/Users/dana1/HackerSchool/ledscreen/LEDBot/emoji/soccer.png'
p980
sS':oden:'
p981
S'/Users/dana1/HackerSchool/ledscreen/LEDBot/emoji/oden.png'
p982
sS':grimacing:'
p983
S'/Users/dana1/HackerSchool/ledscreen/LEDBot/emoji/grimacing.png'
p984
sS':shirt:'
p985
S'/Users/dana1/HackerSchool/ledscreen/LEDBot/emoji/shirt.png'
p986
sS':vibration_mode:'
p987
S'/Users/dana1/HackerSchool/ledscreen/LEDBot/emoji/vibration_mode.png'
p988
sS':hushed:'
p989
S'/Users/dana1/HackerSchool/ledscreen/LEDBot/emoji/hushed.png'
p990
sS':boar:'
p991
S'/Users/dana1/HackerSchool/ledscreen/LEDBot/emoji/boar.png'
p992
sS':kiss:'
p993
S'/Users/dana1/HackerSchool/ledscreen/LEDBot/emoji/kiss.png'
p994
sS':fire_engine:'
p995
S'/Users/dana1/HackerSchool/ledscreen/LEDBot/emoji/fire_engine.png'
p996
sS':hatching_chick:'
p997
S'/Users/dana1/HackerSchool/ledscreen/LEDBot/emoji/hatching_chick.png'
p998
sS':two_hearts:'
p999
S'/Users/dana1/HackerSchool/ledscreen/LEDBot/emoji/two_hearts.png'
p1000
sS':pineapple:'
p1001
S'/Users/dana1/HackerSchool/ledscreen/LEDBot/emoji/pineapple.png'
p1002
sS':waning_gibbous_moon:'
p1003
S'/Users/dana1/HackerSchool/ledscreen/LEDBot/emoji/waning_gibbous_moon.png'
p1004
sS':arrow_right:'
p1005
S'/Users/dana1/HackerSchool/ledscreen/LEDBot/emoji/arrow_right.png'
p1006
sS':frog:'
p1007
S'/Users/dana1/HackerSchool/ledscreen/LEDBot/emoji/frog.png'
p1008
sS':ghost:'
p1009
S'/Users/dana1/HackerSchool/ledscreen/LEDBot/emoji/ghost.png'
p1010
sS':zzz:'
p1011
S'/Users/dana1/HackerSchool/ledscreen/LEDBot/emoji/zzz.png'
p1012
sS':couple:'
p1013
S'/Users/dana1/HackerSchool/ledscreen/LEDBot/emoji/couple.png'
p1014
sS':bangbang:'
p1015
S'/Users/dana1/HackerSchool/ledscreen/LEDBot/emoji/bangbang.png'
p1016
sS':seat:'
p1017
S'/Users/dana1/HackerSchool/ledscreen/LEDBot/emoji/seat.png'
p1018
sS':japanese_goblin:'
p1019
S'/Users/dana1/HackerSchool/ledscreen/LEDBot/emoji/japanese_goblin.png'
p1020
sS':point_up_2:'
p1021
S'/Users/dana1/HackerSchool/ledscreen/LEDBot/emoji/point_up_2.png'
p1022
sS':arrow_right_hook:'
p1023
S'/Users/dana1/HackerSchool/ledscreen/LEDBot/emoji/arrow_right_hook.png'
p1024
sS':bride_with_veil:'
p1025
S'/Users/dana1/HackerSchool/ledscreen/LEDBot/emoji/bride_with_veil.png'
p1026
sS':repeat_one:'
p1027
S'/Users/dana1/HackerSchool/ledscreen/LEDBot/emoji/repeat_one.png'
p1028
sS':wrench:'
p1029
S'/Users/dana1/HackerSchool/ledscreen/LEDBot/emoji/wrench.png'
p1030
sS':grey_question:'
p1031
S'/Users/dana1/HackerSchool/ledscreen/LEDBot/emoji/grey_question.png'
p1032
sS':ice_cream:'
p1033
S'/Users/dana1/HackerSchool/ledscreen/LEDBot/emoji/ice_cream.png'
p1034
sS':bookmark:'
p1035
S'/Users/dana1/HackerSchool/ledscreen/LEDBot/emoji/bookmark.png'
p1036
sS':blue_book:'
p1037
S'/Users/dana1/HackerSchool/ledscreen/LEDBot/emoji/blue_book.png'
p1038
sS':lemon:'
p1039
S'/Users/dana1/HackerSchool/ledscreen/LEDBot/emoji/lemon.png'
p1040
sS':tennis:'
p1041
S'/Users/dana1/HackerSchool/ledscreen/LEDBot/emoji/tennis.png'
p1042
sS':crying_cat_face:'
p1043
S'/Users/dana1/HackerSchool/ledscreen/LEDBot/emoji/crying_cat_face.png'
p1044
sS':small_orange_diamond:'
p1045
S'/Users/dana1/HackerSchool/ledscreen/LEDBot/emoji/small_orange_diamond.png'
p1046
sS':ring:'
p1047
S'/Users/dana1/HackerSchool/ledscreen/LEDBot/emoji/ring.png'
p1048
sS':massage:'
p1049
S'/Users/dana1/HackerSchool/ledscreen/LEDBot/emoji/massage.png'
p1050
sS':shell:'
p1051
S'/Users/dana1/HackerSchool/ledscreen/LEDBot/emoji/shell.png'
p1052
sS':telephone_receiver:'
p1053
S'/Users/dana1/HackerSchool/ledscreen/LEDBot/emoji/telephone_receiver.png'
p1054
sS':headphones:'
p1055
S'/Users/dana1/HackerSchool/ledscreen/LEDBot/emoji/headphones.png'
p1056
sS':hamburger:'
p1057
S'/Users/dana1/HackerSchool/ledscreen/LEDBot/emoji/hamburger.png'
p1058
sS':money_with_wings:'
p1059
S'/Users/dana1/HackerSchool/ledscreen/LEDBot/emoji/money_with_wings.png'
p1060
sS':post_office:'
p1061
S'/Users/dana1/HackerSchool/ledscreen/LEDBot/emoji/post_office.png'
p1062
sS':green_apple:'
p1063
S'/Users/dana1/HackerSchool/ledscreen/LEDBot/emoji/green_apple.png'
p1064
sS':bridge_at_night:'
p1065
S'/Users/dana1/HackerSchool/ledscreen/LEDBot/emoji/bridge_at_night.png'
p1066
sS':e-mail:'
p1067
S'/Users/dana1/HackerSchool/ledscreen/LEDBot/emoji/e-mail.png'
p1068
sS':poop:'
p1069
S'/Users/dana1/HackerSchool/ledscreen/LEDBot/emoji/poop.png'
p1070
sS':pisces:'
p1071
S'/Users/dana1/HackerSchool/ledscreen/LEDBot/emoji/pisces.png'
p1072
sS':seven:'
p1073
S'/Users/dana1/HackerSchool/ledscreen/LEDBot/emoji/seven.png'
p1074
sS':railway_car:'
p1075
S'/Users/dana1/HackerSchool/ledscreen/LEDBot/emoji/railway_car.png'
p1076
sS':lock_with_ink_pen:'
p1077
S'/Users/dana1/HackerSchool/ledscreen/LEDBot/emoji/lock_with_ink_pen.png'
p1078
sS':candy:'
p1079
S'/Users/dana1/HackerSchool/ledscreen/LEDBot/emoji/candy.png'
p1080
sS':pensive:'
p1081
S'/Users/dana1/HackerSchool/ledscreen/LEDBot/emoji/pensive.png'
p1082
sS':persevere:'
p1083
S'/Users/dana1/HackerSchool/ledscreen/LEDBot/emoji/persevere.png'
p1084
sS':poodle:'
p1085
S'/Users/dana1/HackerSchool/ledscreen/LEDBot/emoji/poodle.png'
p1086
sS':no_pedestrians:'
p1087
S'/Users/dana1/HackerSchool/ledscreen/LEDBot/emoji/no_pedestrians.png'
p1088
sS':runner:'
p1089
S'/Users/dana1/HackerSchool/ledscreen/LEDBot/emoji/runner.png'
p1090
sS':outbox_tray:'
p1091
S'/Users/dana1/HackerSchool/ledscreen/LEDBot/emoji/outbox_tray.png'
p1092
sS':bulb:'
p1093
S'/Users/dana1/HackerSchool/ledscreen/LEDBot/emoji/bulb.png'
p1094
sS':raised_hands:'
p1095
S'/Users/dana1/HackerSchool/ledscreen/LEDBot/emoji/raised_hands.png'
p1096
sS':relieved:'
p1097
S'/Users/dana1/HackerSchool/ledscreen/LEDBot/emoji/relieved.png'
p1098
sS':wavy_dash:'
p1099
S'/Users/dana1/HackerSchool/ledscreen/LEDBot/emoji/wavy_dash.png'
p1100
sS':tomato:'
p1101
S'/Users/dana1/HackerSchool/ledscreen/LEDBot/emoji/tomato.png'
p1102
sS':dolphin:'
p1103
S'/Users/dana1/HackerSchool/ledscreen/LEDBot/emoji/dolphin.png'
p1104
sS':dizzy:'
p1105
S'/Users/dana1/HackerSchool/ledscreen/LEDBot/emoji/dizzy.png'
p1106
sS':oncoming_automobile:'
p1107
S'/Users/dana1/HackerSchool/ledscreen/LEDBot/emoji/oncoming_automobile.png'
p1108
sS':straight_ruler:'
p1109
S'/Users/dana1/HackerSchool/ledscreen/LEDBot/emoji/straight_ruler.png'
p1110
sS':city_sunset:'
p1111
S'/Users/dana1/HackerSchool/ledscreen/LEDBot/emoji/city_sunset.png'
p1112
sS':disappointed:'
p1113
S'/Users/dana1/HackerSchool/ledscreen/LEDBot/emoji/disappointed.png'
p1114
sS':green_heart:'
p1115
S'/Users/dana1/HackerSchool/ledscreen/LEDBot/emoji/green_heart.png'
p1116
sS':mailbox_closed:'
p1117
S'/Users/dana1/HackerSchool/ledscreen/LEDBot/emoji/mailbox_closed.png'
p1118
sS':clap:'
p1119
S'/Users/dana1/HackerSchool/ledscreen/LEDBot/emoji/clap.png'
p1120
sS':bird:'
p1121
S'/Users/dana1/HackerSchool/ledscreen/LEDBot/emoji/bird.png'
p1122
sS':envelope:'
p1123
S'/Users/dana1/HackerSchool/ledscreen/LEDBot/emoji/envelope.png'
p1124
sS':high_heel:'
p1125
S'/Users/dana1/HackerSchool/ledscreen/LEDBot/emoji/high_heel.png'
p1126
sS':expressionless:'
p1127
S'/Users/dana1/HackerSchool/ledscreen/LEDBot/emoji/expressionless.png'
p1128
sS':closed_umbrella:'
p1129
S'/Users/dana1/HackerSchool/ledscreen/LEDBot/emoji/closed_umbrella.png'
p1130
sS':anger:'
p1131
S'/Users/dana1/HackerSchool/ledscreen/LEDBot/emoji/anger.png'
p1132
sS':worried:'
p1133
S'/Users/dana1/HackerSchool/ledscreen/LEDBot/emoji/worried.png'
p1134
sS':thumbsup:'
p1135
S'/Users/dana1/HackerSchool/ledscreen/LEDBot/emoji/thumbsup.png'
p1136
sS':scroll:'
p1137
S'/Users/dana1/HackerSchool/ledscreen/LEDBot/emoji/scroll.png'
p1138
sS':blush:'
p1139
S'/Users/dana1/HackerSchool/ledscreen/LEDBot/emoji/blush.png'
p1140
sS':fearful:'
p1141
S'/Users/dana1/HackerSchool/ledscreen/LEDBot/emoji/fearful.png'
p1142
sS':white_check_mark:'
p1143
S'/Users/dana1/HackerSchool/ledscreen/LEDBot/emoji/white_check_mark.png'
p1144
sS':cat:'
p1145
S'/Users/dana1/HackerSchool/ledscreen/LEDBot/emoji/cat.png'
p1146
sS':hear_no_evil:'
p1147
S'/Users/dana1/HackerSchool/ledscreen/LEDBot/emoji/hear_no_evil.png'
p1148
sS':bouquet:'
p1149
S'/Users/dana1/HackerSchool/ledscreen/LEDBot/emoji/bouquet.png'
p1150
sS':checkered_flag:'
p1151
S'/Users/dana1/HackerSchool/ledscreen/LEDBot/emoji/checkered_flag.png'
p1152
sS':currency_exchange:'
p1153
S'/Users/dana1/HackerSchool/ledscreen/LEDBot/emoji/currency_exchange.png'
p1154
sS':clipboard:'
p1155
S'/Users/dana1/HackerSchool/ledscreen/LEDBot/emoji/clipboard.png'
p1156
sS':taxi:'
p1157
S'/Users/dana1/HackerSchool/ledscreen/LEDBot/emoji/taxi.png'
p1158
sS':cocktail:'
p1159
S'/Users/dana1/HackerSchool/ledscreen/LEDBot/emoji/cocktail.png'
p1160
sS':triumph:'
p1161
S'/Users/dana1/HackerSchool/ledscreen/LEDBot/emoji/triumph.png'
p1162
sS':shit:'
p1163
S'/Users/dana1/HackerSchool/ledscreen/LEDBot/emoji/shit.png'
p1164
sS':construction_worker:'
p1165
S'/Users/dana1/HackerSchool/ledscreen/LEDBot/emoji/construction_worker.png'
p1166
sS':minidisc:'
p1167
S'/Users/dana1/HackerSchool/ledscreen/LEDBot/emoji/minidisc.png'
p1168
sS':sagittarius:'
p1169
S'/Users/dana1/HackerSchool/ledscreen/LEDBot/emoji/sagittarius.png'
p1170
sS':microphone:'
p1171
S'/Users/dana1/HackerSchool/ledscreen/LEDBot/emoji/microphone.png'
p1172
sS':mahjong:'
p1173
S'/Users/dana1/HackerSchool/ledscreen/LEDBot/emoji/mahjong.png'
p1174
sS':tophat:'
p1175
S'/Users/dana1/HackerSchool/ledscreen/LEDBot/emoji/tophat.png'
p1176
sS':birthday:'
p1177
S'/Users/dana1/HackerSchool/ledscreen/LEDBot/emoji/birthday.png'
p1178
sS':crystal_ball:'
p1179
S'/Users/dana1/HackerSchool/ledscreen/LEDBot/emoji/crystal_ball.png'
p1180
sS':house_with_garden:'
p1181
S'/Users/dana1/HackerSchool/ledscreen/LEDBot/emoji/house_with_garden.png'
p1182
sS':fireworks:'
p1183
S'/Users/dana1/HackerSchool/ledscreen/LEDBot/emoji/fireworks.png'
p1184
sS':smirk:'
p1185
S'/Users/dana1/HackerSchool/ledscreen/LEDBot/emoji/smirk.png'
p1186
sS':scream_cat:'
p1187
S'/Users/dana1/HackerSchool/ledscreen/LEDBot/emoji/scream_cat.png'
p1188
sS':heavy_minus_sign:'
p1189
S'/Users/dana1/HackerSchool/ledscreen/LEDBot/emoji/heavy_minus_sign.png'
p1190
sS':baby:'
p1191
S'/Users/dana1/HackerSchool/ledscreen/LEDBot/emoji/baby.png'
p1192
sS':wave:'
p1193
S'/Users/dana1/HackerSchool/ledscreen/LEDBot/emoji/wave.png'
p1194
sS':black_square_button:'
p1195
S'/Users/dana1/HackerSchool/ledscreen/LEDBot/emoji/black_square_button.png'
p1196
sS':earth_africa:'
p1197
S'/Users/dana1/HackerSchool/ledscreen/LEDBot/emoji/earth_africa.png'
p1198
sS':arrows_clockwise:'
p1199
S'/Users/dana1/HackerSchool/ledscreen/LEDBot/emoji/arrows_clockwise.png'
p1200
sS':purse:'
p1201
S'/Users/dana1/HackerSchool/ledscreen/LEDBot/emoji/purse.png'
p1202
sS':tanabata_tree:'
p1203
S'/Users/dana1/HackerSchool/ledscreen/LEDBot/emoji/tanabata_tree.png'
p1204
sS':football:'
p1205
S'/Users/dana1/HackerSchool/ledscreen/LEDBot/emoji/football.png'
p1206
sS':city_sunrise:'
p1207
S'/Users/dana1/HackerSchool/ledscreen/LEDBot/emoji/city_sunrise.png'
p1208
sS':bento:'
p1209
S'/Users/dana1/HackerSchool/ledscreen/LEDBot/emoji/bento.png'
p1210
sS':movie_camera:'
p1211
S'/Users/dana1/HackerSchool/ledscreen/LEDBot/emoji/movie_camera.png'
p1212
sS':lollipop:'
p1213
S'/Users/dana1/HackerSchool/ledscreen/LEDBot/emoji/lollipop.png'
p1214
sS':baggage_claim:'
p1215
S'/Users/dana1/HackerSchool/ledscreen/LEDBot/emoji/baggage_claim.png'
p1216
sS':oncoming_bus:'
p1217
S'/Users/dana1/HackerSchool/ledscreen/LEDBot/emoji/oncoming_bus.png'
p1218
sS':department_store:'
p1219
S'/Users/dana1/HackerSchool/ledscreen/LEDBot/emoji/department_store.png'
p1220
sS':nail_care:'
p1221
S'/Users/dana1/HackerSchool/ledscreen/LEDBot/emoji/nail_care.png'
p1222
sS':mount_fuji:'
p1223
S'/Users/dana1/HackerSchool/ledscreen/LEDBot/emoji/mount_fuji.png'
p1224
sS':wind_chime:'
p1225
S'/Users/dana1/HackerSchool/ledscreen/LEDBot/emoji/wind_chime.png'
p1226
sS':tractor:'
p1227
S'/Users/dana1/HackerSchool/ledscreen/LEDBot/emoji/tractor.png'
p1228
sS':beetle:'
p1229
S'/Users/dana1/HackerSchool/ledscreen/LEDBot/emoji/beetle.png'
p1230
sS':station:'
p1231
S'/Users/dana1/HackerSchool/ledscreen/LEDBot/emoji/station.png'
p1232
sS':page_facing_up:'
p1233
S'/Users/dana1/HackerSchool/ledscreen/LEDBot/emoji/page_facing_up.png'
p1234
sS':new:'
p1235
S'/Users/dana1/HackerSchool/ledscreen/LEDBot/emoji/new.png'
p1236
sS':no_bell:'
p1237
S'/Users/dana1/HackerSchool/ledscreen/LEDBot/emoji/no_bell.png'
p1238
sS':basketball:'
p1239
S'/Users/dana1/HackerSchool/ledscreen/LEDBot/emoji/basketball.png'
p1240
sS':hibiscus:'
p1241
S'/Users/dana1/HackerSchool/ledscreen/LEDBot/emoji/hibiscus.png'
p1242
sS':trolleybus:'
p1243
S'/Users/dana1/HackerSchool/ledscreen/LEDBot/emoji/trolleybus.png'
p1244
sS':waning_crescent_moon:'
p1245
S'/Users/dana1/HackerSchool/ledscreen/LEDBot/emoji/waning_crescent_moon.png'
p1246
sS':rabbit:'
p1247
S'/Users/dana1/HackerSchool/ledscreen/LEDBot/emoji/rabbit.png'
p1248
sS':lipstick:'
p1249
S'/Users/dana1/HackerSchool/ledscreen/LEDBot/emoji/lipstick.png'
p1250
sS':musical_keyboard:'
p1251
S'/Users/dana1/HackerSchool/ledscreen/LEDBot/emoji/musical_keyboard.png'
p1252
sS':abc:'
p1253
S'/Users/dana1/HackerSchool/ledscreen/LEDBot/emoji/abc.png'
p1254
sS':pencil2:'
p1255
S'/Users/dana1/HackerSchool/ledscreen/LEDBot/emoji/pencil2.png'
p1256
sS':stars:'
p1257
S'/Users/dana1/HackerSchool/ledscreen/LEDBot/emoji/stars.png'
p1258
sS':cyclone:'
p1259
S'/Users/dana1/HackerSchool/ledscreen/LEDBot/emoji/cyclone.png'
p1260
sS':ribbon:'
p1261
S'/Users/dana1/HackerSchool/ledscreen/LEDBot/emoji/ribbon.png'
p1262
sS':mega:'
p1263
S'/Users/dana1/HackerSchool/ledscreen/LEDBot/emoji/mega.png'
p1264
sS':person_with_pouting_face:'
p1265
S'/Users/dana1/HackerSchool/ledscreen/LEDBot/emoji/person_with_pouting_face.png'
p1266
sS':paw_prints:'
p1267
S'/Users/dana1/HackerSchool/ledscreen/LEDBot/emoji/paw_prints.png'
p1268
sS':exclamation:'
p1269
S'/Users/dana1/HackerSchool/ledscreen/LEDBot/emoji/exclamation.png'
p1270
sS':libra:'
p1271
S'/Users/dana1/HackerSchool/ledscreen/LEDBot/emoji/libra.png'
p1272
sS':rewind:'
p1273
S'/Users/dana1/HackerSchool/ledscreen/LEDBot/emoji/rewind.png'
p1274
sS':meat_on_bone:'
p1275
S'/Users/dana1/HackerSchool/ledscreen/LEDBot/emoji/meat_on_bone.png'
p1276
sS':seedling:'
p1277
S'/Users/dana1/HackerSchool/ledscreen/LEDBot/emoji/seedling.png'
p1278
sS':tropical_fish:'
p1279
S'/Users/dana1/HackerSchool/ledscreen/LEDBot/emoji/tropical_fish.png'
p1280
sS':pager:'
p1281
S'/Users/dana1/HackerSchool/ledscreen/LEDBot/emoji/pager.png'
p1282
sS':fountain:'
p1283
S'/Users/dana1/HackerSchool/ledscreen/LEDBot/emoji/fountain.png'
p1284
sS':volcano:'
p1285
S'/Users/dana1/HackerSchool/ledscreen/LEDBot/emoji/volcano.png'
p1286
sS':curry:'
p1287
S'/Users/dana1/HackerSchool/ledscreen/LEDBot/emoji/curry.png'
p1288
sS':rat:'
p1289
S'/Users/dana1/HackerSchool/ledscreen/LEDBot/emoji/rat.png'
p1290
sS':flashlight:'
p1291
S'/Users/dana1/HackerSchool/ledscreen/LEDBot/emoji/flashlight.png'
p1292
sS':video_game:'
p1293
S'/Users/dana1/HackerSchool/ledscreen/LEDBot/emoji/video_game.png'
p1294
sS':hatched_chick:'
p1295
S'/Users/dana1/HackerSchool/ledscreen/LEDBot/emoji/hatched_chick.png'
p1296
sS':bug:'
p1297
S'/Users/dana1/HackerSchool/ledscreen/LEDBot/emoji/bug.png'
p1298
sS':art:'
p1299
S'/Users/dana1/HackerSchool/ledscreen/LEDBot/emoji/art.png'
p1300
sS':cake:'
p1301
S'/Users/dana1/HackerSchool/ledscreen/LEDBot/emoji/cake.png'
p1302
sS':love_letter:'
p1303
S'/Users/dana1/HackerSchool/ledscreen/LEDBot/emoji/love_letter.png'
p1304
sS':saxophone:'
p1305
S'/Users/dana1/HackerSchool/ledscreen/LEDBot/emoji/saxophone.png'
p1306
sS':sparkler:'
p1307
S'/Users/dana1/HackerSchool/ledscreen/LEDBot/emoji/sparkler.png'
p1308
sS':whale:'
p1309
S'/Users/dana1/HackerSchool/ledscreen/LEDBot/emoji/whale.png'
p1310
sS':sweat_drops:'
p1311
S'/Users/dana1/HackerSchool/ledscreen/LEDBot/emoji/sweat_drops.png'
p1312
sS':peach:'
p1313
S'/Users/dana1/HackerSchool/ledscreen/LEDBot/emoji/peach.png'
p1314
sS':purple_heart:'
p1315
S'/Users/dana1/HackerSchool/ledscreen/LEDBot/emoji/purple_heart.png'
p1316
sS':arrow_down_small:'
p1317
S'/Users/dana1/HackerSchool/ledscreen/LEDBot/emoji/arrow_down_small.png'
p1318
sS':eyeglasses:'
p1319
S'/Users/dana1/HackerSchool/ledscreen/LEDBot/emoji/eyeglasses.png'
p1320
sS':arrow_lower_right:'
p1321
S'/Users/dana1/HackerSchool/ledscreen/LEDBot/emoji/arrow_lower_right.png'
p1322
sS':milky_way:'
p1323
S'/Users/dana1/HackerSchool/ledscreen/LEDBot/emoji/milky_way.png'
p1324
sS':globe_with_meridians:'
p1325
S'/Users/dana1/HackerSchool/ledscreen/LEDBot/emoji/globe_with_meridians.png'
p1326
sS':white_medium_square:'
p1327
S'/Users/dana1/HackerSchool/ledscreen/LEDBot/emoji/white_medium_square.png'
p1328
sS':spades:'
p1329
S'/Users/dana1/HackerSchool/ledscreen/LEDBot/emoji/spades.png'
p1330
sS':lips:'
p1331
S'/Users/dana1/HackerSchool/ledscreen/LEDBot/emoji/lips.png'
p1332
sS':eight_pointed_black_star:'
p1333
S'/Users/dana1/HackerSchool/ledscreen/LEDBot/emoji/eight_pointed_black_star.png'
p1334
sS':carousel_horse:'
p1335
S'/Users/dana1/HackerSchool/ledscreen/LEDBot/emoji/carousel_horse.png'
p1336
sS':point_up:'
p1337
S'/Users/dana1/HackerSchool/ledscreen/LEDBot/emoji/point_up.png'
p1338
sS':gem:'
p1339
S'/Users/dana1/HackerSchool/ledscreen/LEDBot/emoji/gem.png'
p1340
sS':dolls:'
p1341
S'/Users/dana1/HackerSchool/ledscreen/LEDBot/emoji/dolls.png'
p1342
sS':circus_tent:'
p1343
S'/Users/dana1/HackerSchool/ledscreen/LEDBot/emoji/circus_tent.png'
p1344
sS':rabbit2:'
p1345
S'/Users/dana1/HackerSchool/ledscreen/LEDBot/emoji/rabbit2.png'
p1346
sS':hocho:'
p1347
S'/Users/dana1/HackerSchool/ledscreen/LEDBot/emoji/hocho.png'
p1348
sS':twisted_rightwards_arrows:'
p1349
S'/Users/dana1/HackerSchool/ledscreen/LEDBot/emoji/twisted_rightwards_arrows.png'
p1350
sS':zap:'
p1351
S'/Users/dana1/HackerSchool/ledscreen/LEDBot/emoji/zap.png'
p1352
sS':smiley:'
p1353
S'/Users/dana1/HackerSchool/ledscreen/LEDBot/emoji/smiley.png'
p1354
sS':earth_americas:'
p1355
S'/Users/dana1/HackerSchool/ledscreen/LEDBot/emoji/earth_americas.png'
p1356
sS':sound:'
p1357
S'/Users/dana1/HackerSchool/ledscreen/LEDBot/emoji/sound.png'
p1358
sS':pouting_cat:'
p1359
S'/Users/dana1/HackerSchool/ledscreen/LEDBot/emoji/pouting_cat.png'
p1360
sS':mute:'
p1361
S'/Users/dana1/HackerSchool/ledscreen/LEDBot/emoji/mute.png'
p1362
sS':school:'
p1363
S'/Users/dana1/HackerSchool/ledscreen/LEDBot/emoji/school.png'
p1364
sS':file_folder:'
p1365
S'/Users/dana1/HackerSchool/ledscreen/LEDBot/emoji/file_folder.png'
p1366
sS':rage:'
p1367
S'/Users/dana1/HackerSchool/ledscreen/LEDBot/emoji/rage.png'
p1368
sS':incoming_envelope:'
p1369
S'/Users/dana1/HackerSchool/ledscreen/LEDBot/emoji/incoming_envelope.png'
p1370
sS':put_litter_in_its_place:'
p1371
S'/Users/dana1/HackerSchool/ledscreen/LEDBot/emoji/put_litter_in_its_place.png'
p1372
sS':phone:'
p1373
S'/Users/dana1/HackerSchool/ledscreen/LEDBot/emoji/phone.png'
p1374
sS':speaker:'
p1375
S'/Users/dana1/HackerSchool/ledscreen/LEDBot/emoji/speaker.png'
p1376
sS':heartpulse:'
p1377
S'/Users/dana1/HackerSchool/ledscreen/LEDBot/emoji/heartpulse.png'
p1378
sS':arrow_lower_left:'
p1379
S'/Users/dana1/HackerSchool/ledscreen/LEDBot/emoji/arrow_lower_left.png'
p1380
sS':waxing_crescent_moon:'
p1381
S'/Users/dana1/HackerSchool/ledscreen/LEDBot/emoji/waxing_crescent_moon.png'
p1382
sS':small_red_triangle:'
p1383
S'/Users/dana1/HackerSchool/ledscreen/LEDBot/emoji/small_red_triangle.png'
p1384
sS':kissing_closed_eyes:'
p1385
S'/Users/dana1/HackerSchool/ledscreen/LEDBot/emoji/kissing_closed_eyes.png'
p1386
sS':grinning:'
p1387
S'/Users/dana1/HackerSchool/ledscreen/LEDBot/emoji/grinning.png'
p1388
sS':cookie:'
p1389
S'/Users/dana1/HackerSchool/ledscreen/LEDBot/emoji/cookie.png'
p1390
sS':dash:'
p1391
S'/Users/dana1/HackerSchool/ledscreen/LEDBot/emoji/dash.png'
p1392
sS':clock1030:'
p1393
S'/Users/dana1/HackerSchool/ledscreen/LEDBot/emoji/clock1030.png'
p1394
sS':open_file_folder:'
p1395
S'/Users/dana1/HackerSchool/ledscreen/LEDBot/emoji/open_file_folder.png'
p1396
sS':scissors:'
p1397
S'/Users/dana1/HackerSchool/ledscreen/LEDBot/emoji/scissors.png'
p1398
sS':truck:'
p1399
S'/Users/dana1/HackerSchool/ledscreen/LEDBot/emoji/truck.png'
p1400
sS':repeat:'
p1401
S'/Users/dana1/HackerSchool/ledscreen/LEDBot/emoji/repeat.png'
p1402
sS':clock11:'
p1403
S'/Users/dana1/HackerSchool/ledscreen/LEDBot/emoji/clock11.png'
p1404
sS':clubs:'
p1405
S'/Users/dana1/HackerSchool/ledscreen/LEDBot/emoji/clubs.png'
p1406
sS':clock1130:'
p1407
S'/Users/dana1/HackerSchool/ledscreen/LEDBot/emoji/clock1130.png'
p1408
sS':bullettrain_side:'
p1409
S'/Users/dana1/HackerSchool/ledscreen/LEDBot/emoji/bullettrain_side.png'
p1410
sS':black_medium_small_square:'
p1411
S'/Users/dana1/HackerSchool/ledscreen/LEDBot/emoji/black_medium_small_square.png'
p1412
sS':diamond_shape_with_a_dot_inside:'
p1413
S'/Users/dana1/HackerSchool/ledscreen/LEDBot/emoji/diamond_shape_with_a_dot_inside.png'
p1414
sS':aerial_tramway:'
p1415
S'/Users/dana1/HackerSchool/ledscreen/LEDBot/emoji/aerial_tramway.png'
p1416
sS':dragon:'
p1417
S'/Users/dana1/HackerSchool/ledscreen/LEDBot/emoji/dragon.png'
p1418
sS':arrow_down:'
p1419
S'/Users/dana1/HackerSchool/ledscreen/LEDBot/emoji/arrow_down.png'
p1420
sS':rice_cracker:'
p1421
S'/Users/dana1/HackerSchool/ledscreen/LEDBot/emoji/rice_cracker.png'
p1422
sS':white_medium_small_square:'
p1423
S'/Users/dana1/HackerSchool/ledscreen/LEDBot/emoji/white_medium_small_square.png'
p1424
sS':sweat_smile:'
p1425
S'/Users/dana1/HackerSchool/ledscreen/LEDBot/emoji/sweat_smile.png'
p1426
sS':cherry_blossom:'
p1427
S'/Users/dana1/HackerSchool/ledscreen/LEDBot/emoji/cherry_blossom.png'
p1428
sS':dvd:'
p1429
S'/Users/dana1/HackerSchool/ledscreen/LEDBot/emoji/dvd.png'
p1430
sS':beers:'
p1431
S'/Users/dana1/HackerSchool/ledscreen/LEDBot/emoji/beers.png'
p1432
sS':recycle:'
p1433
S'/Users/dana1/HackerSchool/ledscreen/LEDBot/emoji/recycle.png'
p1434
sS':strawberry:'
p1435
S'/Users/dana1/HackerSchool/ledscreen/LEDBot/emoji/strawberry.png'
p1436
sS':flower_playing_cards:'
p1437
S'/Users/dana1/HackerSchool/ledscreen/LEDBot/emoji/flower_playing_cards.png'
p1438
sS':hourglass:'
p1439
S'/Users/dana1/HackerSchool/ledscreen/LEDBot/emoji/hourglass.png'
p1440
sS':aries:'
p1441
S'/Users/dana1/HackerSchool/ledscreen/LEDBot/emoji/aries.png'
p1442
sS':grapes:'
p1443
S'/Users/dana1/HackerSchool/ledscreen/LEDBot/emoji/grapes.png'
p1444
sS':man:'
p1445
S'/Users/dana1/HackerSchool/ledscreen/LEDBot/emoji/man.png'
p1446
sS':heavy_exclamation_mark:'
p1447
S'/Users/dana1/HackerSchool/ledscreen/LEDBot/emoji/heavy_exclamation_mark.png'
p1448
sS':leaves:'
p1449
S'/Users/dana1/HackerSchool/ledscreen/LEDBot/emoji/leaves.png'
p1450
sS':bath:'
p1451
S'/Users/dana1/HackerSchool/ledscreen/LEDBot/emoji/bath.png'
p1452
sS':atm:'
p1453
S'/Users/dana1/HackerSchool/ledscreen/LEDBot/emoji/atm.png'
p1454
sS':joy:'
p1455
S'/Users/dana1/HackerSchool/ledscreen/LEDBot/emoji/joy.png'
p1456
sS':heavy_division_sign:'
p1457
S'/Users/dana1/HackerSchool/ledscreen/LEDBot/emoji/heavy_division_sign.png'
p1458
sS':bust_in_silhouette:'
p1459
S'/Users/dana1/HackerSchool/ledscreen/LEDBot/emoji/bust_in_silhouette.png'
p1460
sS':santa:'
p1461
S'/Users/dana1/HackerSchool/ledscreen/LEDBot/emoji/santa.png'
p1462
sS':elephant:'
p1463
S'/Users/dana1/HackerSchool/ledscreen/LEDBot/emoji/elephant.png'
p1464
sS':mens:'
p1465
S'/Users/dana1/HackerSchool/ledscreen/LEDBot/emoji/mens.png'
p1466
sS':office:'
p1467
S'/Users/dana1/HackerSchool/ledscreen/LEDBot/emoji/office.png'
p1468
sS':notebook_with_decorative_cover:'
p1469
S'/Users/dana1/HackerSchool/ledscreen/LEDBot/emoji/notebook_with_decorative_cover.png'
p1470
sS':egg:'
p1471
S'/Users/dana1/HackerSchool/ledscreen/LEDBot/emoji/egg.png'
p1472
sS':wine_glass:'
p1473
S'/Users/dana1/HackerSchool/ledscreen/LEDBot/emoji/wine_glass.png'
p1474
sS':no_bicycles:'
p1475
S'/Users/dana1/HackerSchool/ledscreen/LEDBot/emoji/no_bicycles.png'
p1476
sS':bikini:'
p1477
S'/Users/dana1/HackerSchool/ledscreen/LEDBot/emoji/bikini.png'
p1478
sS':passport_control:'
p1479
S'/Users/dana1/HackerSchool/ledscreen/LEDBot/emoji/passport_control.png'
p1480
sS':email:'
p1481
S'/Users/dana1/HackerSchool/ledscreen/LEDBot/emoji/email.png'
p1482
sS':zero:'
p1483
S'/Users/dana1/HackerSchool/ledscreen/LEDBot/emoji/zero.png'
p1484
sS':suspension_railway:'
p1485
S'/Users/dana1/HackerSchool/ledscreen/LEDBot/emoji/suspension_railway.png'
p1486
sS':evergreen_tree:'
p1487
S'/Users/dana1/HackerSchool/ledscreen/LEDBot/emoji/evergreen_tree.png'
p1488
sS':boy:'
p1489
S'/Users/dana1/HackerSchool/ledscreen/LEDBot/emoji/boy.png'
p1490
sS':koala:'
p1491
S'/Users/dana1/HackerSchool/ledscreen/LEDBot/emoji/koala.png'
p1492
sS':credit_card:'
p1493
S'/Users/dana1/HackerSchool/ledscreen/LEDBot/emoji/credit_card.png'
p1494
sS':open_book:'
p1495
S'/Users/dana1/HackerSchool/ledscreen/LEDBot/emoji/open_book.png'
p1496
sS':monkey_face:'
p1497
S'/Users/dana1/HackerSchool/ledscreen/LEDBot/emoji/monkey_face.png'
p1498
sS':dragon_face:'
p1499
S'/Users/dana1/HackerSchool/ledscreen/LEDBot/emoji/dragon_face.png'
p1500
sS':raising_hand:'
p1501
S'/Users/dana1/HackerSchool/ledscreen/LEDBot/emoji/raising_hand.png'
p1502
sS':ant:'
p1503
S'/Users/dana1/HackerSchool/ledscreen/LEDBot/emoji/ant.png'
p1504
sS':last_quarter_moon:'
p1505
S'/Users/dana1/HackerSchool/ledscreen/LEDBot/emoji/last_quarter_moon.png'
p1506
sS':clock1:'
p1507
S'/Users/dana1/HackerSchool/ledscreen/LEDBot/emoji/clock1.png'
p1508
sS':heartbeat:'
p1509
S'/Users/dana1/HackerSchool/ledscreen/LEDBot/emoji/heartbeat.png'
p1510
sS':turtle:'
p1511
S'/Users/dana1/HackerSchool/ledscreen/LEDBot/emoji/turtle.png'
p1512
sS':inbox_tray:'
p1513
S'/Users/dana1/HackerSchool/ledscreen/LEDBot/emoji/inbox_tray.png'
p1514
sS':dromedary_camel:'
p1515
S'/Users/dana1/HackerSchool/ledscreen/LEDBot/emoji/dromedary_camel.png'
p1516
sS':trident:'
p1517
S'/Users/dana1/HackerSchool/ledscreen/LEDBot/emoji/trident.png'
p1518
sS':chart:'
p1519
S'/Users/dana1/HackerSchool/ledscreen/LEDBot/emoji/chart.png'
p1520
sS':baby_symbol:'
p1521
S'/Users/dana1/HackerSchool/ledscreen/LEDBot/emoji/baby_symbol.png'
p1522
sS':warning:'
p1523
S'/Users/dana1/HackerSchool/ledscreen/LEDBot/emoji/warning.png'
p1524
sS':pear:'
p1525
S'/Users/dana1/HackerSchool/ledscreen/LEDBot/emoji/pear.png'
p1526
sS':telephone:'
p1527
S'/Users/dana1/HackerSchool/ledscreen/LEDBot/emoji/telephone.png'
p1528
sS':heart_eyes_cat:'
p1529
S'/Users/dana1/HackerSchool/ledscreen/LEDBot/emoji/heart_eyes_cat.png'
p1530
sS':dizzy_face:'
p1531
S'/Users/dana1/HackerSchool/ledscreen/LEDBot/emoji/dizzy_face.png'
p1532
sS':pig_nose:'
p1533
S'/Users/dana1/HackerSchool/ledscreen/LEDBot/emoji/pig_nose.png'
p1534
sS':doughnut:'
p1535
S'/Users/dana1/HackerSchool/ledscreen/LEDBot/emoji/doughnut.png'
p1536
sS':rainbow:'
p1537
S'/Users/dana1/HackerSchool/ledscreen/LEDBot/emoji/rainbow.png'
p1538
sS':rice:'
p1539
S'/Users/dana1/HackerSchool/ledscreen/LEDBot/emoji/rice.png'
p1540
sS':necktie:'
p1541
S'/Users/dana1/HackerSchool/ledscreen/LEDBot/emoji/necktie.png'
p1542
sS':tea:'
p1543
S'/Users/dana1/HackerSchool/ledscreen/LEDBot/emoji/tea.png'
p1544
sS':girl:'
p1545
S'/Users/dana1/HackerSchool/ledscreen/LEDBot/emoji/girl.png'
p1546
sS':clock10:'
p1547
S'/Users/dana1/HackerSchool/ledscreen/LEDBot/emoji/clock10.png'
p1548
sS':bike:'
p1549
S'/Users/dana1/HackerSchool/ledscreen/LEDBot/emoji/bike.png'
p1550
sS':children_crossing:'
p1551
S'/Users/dana1/HackerSchool/ledscreen/LEDBot/emoji/children_crossing.png'
p1552
sS':cop:'
p1553
S'/Users/dana1/HackerSchool/ledscreen/LEDBot/emoji/cop.png'
p1554
sS':poultry_leg:'
p1555
S'/Users/dana1/HackerSchool/ledscreen/LEDBot/emoji/poultry_leg.png'
p1556
sS':dancers:'
p1557
S'/Users/dana1/HackerSchool/ledscreen/LEDBot/emoji/dancers.png'
p1558
sS':sleeping:'
p1559
S'/Users/dana1/HackerSchool/ledscreen/LEDBot/emoji/sleeping.png'
p1560
sS':black_circle:'
p1561
S'/Users/dana1/HackerSchool/ledscreen/LEDBot/emoji/black_circle.png'
p1562
sS':gun:'
p1563
S'/Users/dana1/HackerSchool/ledscreen/LEDBot/emoji/gun.png'
p1564
sS':rocket:'
p1565
S'/Users/dana1/HackerSchool/ledscreen/LEDBot/emoji/rocket.png'
p1566
sS':moneybag:'
p1567
S'/Users/dana1/HackerSchool/ledscreen/LEDBot/emoji/moneybag.png'
p1568
sS':arrow_up_small:'
p1569
S'/Users/dana1/HackerSchool/ledscreen/LEDBot/emoji/arrow_up_small.png'
p1570
sS':five:'
p1571
S'/Users/dana1/HackerSchool/ledscreen/LEDBot/emoji/five.png'
p1572
sS':large_blue_diamond:'
p1573
S'/Users/dana1/HackerSchool/ledscreen/LEDBot/emoji/large_blue_diamond.png'
p1574
sS':alarm_clock:'
p1575
S'/Users/dana1/HackerSchool/ledscreen/LEDBot/emoji/alarm_clock.png'
p1576
sS':kimono:'
p1577
S'/Users/dana1/HackerSchool/ledscreen/LEDBot/emoji/kimono.png'
p1578
sS':footprints:'
p1579
S'/Users/dana1/HackerSchool/ledscreen/LEDBot/emoji/footprints.png'
p1580
sS':information_source:'
p1581
S'/Users/dana1/HackerSchool/ledscreen/LEDBot/emoji/information_source.png'
p1582
sS':smiley_cat:'
p1583
S'/Users/dana1/HackerSchool/ledscreen/LEDBot/emoji/smiley_cat.png'
p1584
sS':cow:'
p1585
S'/Users/dana1/HackerSchool/ledscreen/LEDBot/emoji/cow.png'
p1586
sS':floppy_disk:'
p1587
S'/Users/dana1/HackerSchool/ledscreen/LEDBot/emoji/floppy_disk.png'
p1588
sS':sunglasses:'
p1589
S'/Users/dana1/HackerSchool/ledscreen/LEDBot/emoji/sunglasses.png'
p1590
sS':imp:'
p1591
S'/Users/dana1/HackerSchool/ledscreen/LEDBot/emoji/imp.png'
p1592
sS':gift_heart:'
p1593
S'/Users/dana1/HackerSchool/ledscreen/LEDBot/emoji/gift_heart.png'
p1594
sS':feet:'
p1595
S'/Users/dana1/HackerSchool/ledscreen/LEDBot/emoji/feet.png'
p1596
sS':honeybee:'
p1597
S'/Users/dana1/HackerSchool/ledscreen/LEDBot/emoji/honeybee.png'
p1598
sS':trumpet:'
p1599
S'/Users/dana1/HackerSchool/ledscreen/LEDBot/emoji/trumpet.png'
p1600
s.