(dp0
S':dollar:'
p1
S'https://zulip.com/static/third/gemoji/images/emoji/dollar.png'
p2
sS':arrow_double_up:'
p3
S'https://zulip.com/static/third/gemoji/images/emoji/arrow_double_up.png'
p4
sS':pound:'
p5
S'https://zulip.com/static/third/gemoji/images/emoji/pound.png'
p6
sS':microscope:'
p7
S'https://zulip.com/static/third/gemoji/images/emoji/microscope.png'
p8
sS':confounded:'
p9
S'https://zulip.com/static/third/gemoji/images/emoji/confounded.png'
p10
sS':corn:'
p11
S'https://zulip.com/static/third/gemoji/images/emoji/corn.png'
p12
sS':soon:'
p13
S'https://zulip.com/static/third/gemoji/images/emoji/soon.png'
p14
sS':pushpin:'
p15
S'https://zulip.com/static/third/gemoji/images/emoji/pushpin.png'
p16
sS':arrow_backward:'
p17
S'https://zulip.com/static/third/gemoji/images/emoji/arrow_backward.png'
p18
sS':shaved_ice:'
p19
S'https://zulip.com/static/third/gemoji/images/emoji/shaved_ice.png'
p20
sS':weary:'
p21
S'https://zulip.com/static/third/gemoji/images/emoji/weary.png'
p22
sS':laughing:'
p23
S'https://zulip.com/static/third/gemoji/images/emoji/laughing.png'
p24
sS':arrow_heading_up:'
p25
S'https://zulip.com/static/third/gemoji/images/emoji/arrow_heading_up.png'
p26
sS':dog:'
p27
S'https://zulip.com/static/third/gemoji/images/emoji/dog.png'
p28
sS':fish:'
p29
S'https://zulip.com/static/third/gemoji/images/emoji/fish.png'
p30
sS':ear:'
p31
S'https://zulip.com/static/third/gemoji/images/emoji/ear.png'
p32
sS':arrows_counterclockwise:'
p33
S'https://zulip.com/static/third/gemoji/images/emoji/arrows_counterclockwise.png'
p34
sS':palm_tree:'
p35
S'https://zulip.com/static/third/gemoji/images/emoji/palm_tree.png'
p36
sS':mushroom:'
p37
S'https://zulip.com/static/third/gemoji/images/emoji/mushroom.png'
p38
sS':crescent_moon:'
p39
S'https://zulip.com/static/third/gemoji/images/emoji/crescent_moon.png'
p40
sS':golf:'
p41
S'https://zulip.com/static/third/gemoji/images/emoji/golf.png'
p42
sS':dog2:'
p43
S'https://zulip.com/static/third/gemoji/images/emoji/dog2.png'
p44
sS':dart:'
p45
S'https://zulip.com/static/third/gemoji/images/emoji/dart.png'
p46
sS':light_rail:'
p47
S'https://zulip.com/static/third/gemoji/images/emoji/light_rail.png'
p48
sS':watch:'
p49
S'https://zulip.com/static/third/gemoji/images/emoji/watch.png'
p50
sS':part_alternation_mark:'
p51
S'https://zulip.com/static/third/gemoji/images/emoji/part_alternation_mark.png'
p52
sS':arrow_upper_right:'
p53
S'https://zulip.com/static/third/gemoji/images/emoji/arrow_upper_right.png'
p54
sS':open_hands:'
p55
S'https://zulip.com/static/third/gemoji/images/emoji/open_hands.png'
p56
sS':factory:'
p57
S'https://zulip.com/static/third/gemoji/images/emoji/factory.png'
p58
sS':ramen:'
p59
S'https://zulip.com/static/third/gemoji/images/emoji/ramen.png'
p60
sS':car:'
p61
S'https://zulip.com/static/third/gemoji/images/emoji/car.png'
p62
sS':jack_o_lantern:'
p63
S'https://zulip.com/static/third/gemoji/images/emoji/jack_o_lantern.png'
p64
sS':thought_balloon:'
p65
S'https://zulip.com/static/third/gemoji/images/emoji/thought_balloon.png'
p66
sS':leo:'
p67
S'https://zulip.com/static/third/gemoji/images/emoji/leo.png'
p68
sS':question:'
p69
S'https://zulip.com/static/third/gemoji/images/emoji/question.png'
p70
sS':customs:'
p71
S'https://zulip.com/static/third/gemoji/images/emoji/customs.png'
p72
sS':goat:'
p73
S'https://zulip.com/static/third/gemoji/images/emoji/goat.png'
p74
sS':mailbox_with_mail:'
p75
S'https://zulip.com/static/third/gemoji/images/emoji/mailbox_with_mail.png'
p76
sS':smirk_cat:'
p77
S'https://zulip.com/static/third/gemoji/images/emoji/smirk_cat.png'
p78
sS':school_satchel:'
p79
S'https://zulip.com/static/third/gemoji/images/emoji/school_satchel.png'
p80
sS':symbols:'
p81
S'https://zulip.com/static/third/gemoji/images/emoji/symbols.png'
p82
sS':satellite:'
p83
S'https://zulip.com/static/third/gemoji/images/emoji/satellite.png'
p84
sS':european_castle:'
p85
S'https://zulip.com/static/third/gemoji/images/emoji/european_castle.png'
p86
sS':princess:'
p87
S'https://zulip.com/static/third/gemoji/images/emoji/princess.png'
p88
sS':hammer:'
p89
S'https://zulip.com/static/third/gemoji/images/emoji/hammer.png'
p90
sS':arrow_left:'
p91
S'https://zulip.com/static/third/gemoji/images/emoji/arrow_left.png'
p92
sS':virgo:'
p93
S'https://zulip.com/static/third/gemoji/images/emoji/virgo.png'
p94
sS':womens:'
p95
S'https://zulip.com/static/third/gemoji/images/emoji/womens.png'
p96
sS':yum:'
p97
S'https://zulip.com/static/third/gemoji/images/emoji/yum.png'
p98
sS':heart:'
p99
S'https://zulip.com/static/third/gemoji/images/emoji/heart.png'
p100
sS':rooster:'
p101
S'https://zulip.com/static/third/gemoji/images/emoji/rooster.png'
p102
sS':two_men_holding_hands:'
p103
S'https://zulip.com/static/third/gemoji/images/emoji/two_men_holding_hands.png'
p104
sS':computer:'
p105
S'https://zulip.com/static/third/gemoji/images/emoji/computer.png'
p106
sS':red_car:'
p107
S'https://zulip.com/static/third/gemoji/images/emoji/red_car.png'
p108
sS':eggplant:'
p109
S'https://zulip.com/static/third/gemoji/images/emoji/eggplant.png'
p110
sS':fast_forward:'
p111
S'https://zulip.com/static/third/gemoji/images/emoji/fast_forward.png'
p112
sS':monkey:'
p113
S'https://zulip.com/static/third/gemoji/images/emoji/monkey.png'
p114
sS':smoking:'
p115
S'https://zulip.com/static/third/gemoji/images/emoji/smoking.png'
p116
sS':pray:'
p117
S'https://zulip.com/static/third/gemoji/images/emoji/pray.png'
p118
sS':racehorse:'
p119
S'https://zulip.com/static/third/gemoji/images/emoji/racehorse.png'
p120
sS':congratulations:'
p121
S'https://zulip.com/static/third/gemoji/images/emoji/congratulations.png'
p122
sS':traffic_light:'
p123
S'https://zulip.com/static/third/gemoji/images/emoji/traffic_light.png'
p124
sS':copyright:'
p125
S'https://zulip.com/static/third/gemoji/images/emoji/copyright.png'
p126
sS':herb:'
p127
S'https://zulip.com/static/third/gemoji/images/emoji/herb.png'
p128
sS':family:'
p129
S'https://zulip.com/static/third/gemoji/images/emoji/family.png'
p130
sS':rotating_light:'
p131
S'https://zulip.com/static/third/gemoji/images/emoji/rotating_light.png'
p132
sS':curly_loop:'
p133
S'https://zulip.com/static/third/gemoji/images/emoji/curly_loop.png'
p134
sS':roller_coaster:'
p135
S'https://zulip.com/static/third/gemoji/images/emoji/roller_coaster.png'
p136
sS':rugby_football:'
p137
S'https://zulip.com/static/third/gemoji/images/emoji/rugby_football.png'
p138
sS':full_moon:'
p139
S'https://zulip.com/static/third/gemoji/images/emoji/full_moon.png'
p140
sS':swimmer:'
p141
S'https://zulip.com/static/third/gemoji/images/emoji/swimmer.png'
p142
sS':hotel:'
p143
S'https://zulip.com/static/third/gemoji/images/emoji/hotel.png'
p144
sS':izakaya_lantern:'
p145
S'https://zulip.com/static/third/gemoji/images/emoji/izakaya_lantern.png'
p146
sS':pouch:'
p147
S'https://zulip.com/static/third/gemoji/images/emoji/pouch.png'
p148
sS':kissing_smiling_eyes:'
p149
S'https://zulip.com/static/third/gemoji/images/emoji/kissing_smiling_eyes.png'
p150
sS':eight:'
p151
S'https://zulip.com/static/third/gemoji/images/emoji/eight.png'
p152
sS':ok_woman:'
p153
S'https://zulip.com/static/third/gemoji/images/emoji/ok_woman.png'
p154
sS':japanese_castle:'
p155
S'https://zulip.com/static/third/gemoji/images/emoji/japanese_castle.png'
p156
sS':cool:'
p157
S'https://zulip.com/static/third/gemoji/images/emoji/cool.png'
p158
sS':snail:'
p159
S'https://zulip.com/static/third/gemoji/images/emoji/snail.png'
p160
sS':shower:'
p161
S'https://zulip.com/static/third/gemoji/images/emoji/shower.png'
p162
sS':mortar_board:'
p163
S'https://zulip.com/static/third/gemoji/images/emoji/mortar_board.png'
p164
sS':penguin:'
p165
S'https://zulip.com/static/third/gemoji/images/emoji/penguin.png'
p166
sS':four:'
p167
S'https://zulip.com/static/third/gemoji/images/emoji/four.png'
p168
sS':see_no_evil:'
p169
S'https://zulip.com/static/third/gemoji/images/emoji/see_no_evil.png'
p170
sS':postbox:'
p171
S'https://zulip.com/static/third/gemoji/images/emoji/postbox.png'
p172
sS':astonished:'
p173
S'https://zulip.com/static/third/gemoji/images/emoji/astonished.png'
p174
sS':jeans:'
p175
S'https://zulip.com/static/third/gemoji/images/emoji/jeans.png'
p176
sS':shoe:'
p177
S'https://zulip.com/static/third/gemoji/images/emoji/shoe.png'
p178
sS':capital_abcd:'
p179
S'https://zulip.com/static/third/gemoji/images/emoji/capital_abcd.png'
p180
sS':stuck_out_tongue_winking_eye:'
p181
S'https://zulip.com/static/third/gemoji/images/emoji/stuck_out_tongue_winking_eye.png'
p182
sS':sparkle:'
p183
S'https://zulip.com/static/third/gemoji/images/emoji/sparkle.png'
p184
sS':point_left:'
p185
S'https://zulip.com/static/third/gemoji/images/emoji/point_left.png'
p186
sS':handbag:'
p187
S'https://zulip.com/static/third/gemoji/images/emoji/handbag.png'
p188
sS':sheep:'
p189
S'https://zulip.com/static/third/gemoji/images/emoji/sheep.png'
p190
sS':busts_in_silhouette:'
p191
S'https://zulip.com/static/third/gemoji/images/emoji/busts_in_silhouette.png'
p192
sS':full_moon_with_face:'
p193
S'https://zulip.com/static/third/gemoji/images/emoji/full_moon_with_face.png'
p194
sS':large_blue_circle:'
p195
S'https://zulip.com/static/third/gemoji/images/emoji/large_blue_circle.png'
p196
sS':notebook:'
p197
S'https://zulip.com/static/third/gemoji/images/emoji/notebook.png'
p198
sS':bell:'
p199
S'https://zulip.com/static/third/gemoji/images/emoji/bell.png'
p200
sS':vhs:'
p201
S'https://zulip.com/static/third/gemoji/images/emoji/vhs.png'
p202
sS':bullettrain_front:'
p203
S'https://zulip.com/static/third/gemoji/images/emoji/bullettrain_front.png'
p204
sS':sun_with_face:'
p205
S'https://zulip.com/static/third/gemoji/images/emoji/sun_with_face.png'
p206
sS':high_brightness:'
p207
S'https://zulip.com/static/third/gemoji/images/emoji/high_brightness.png'
p208
sS':crossed_flags:'
p209
S'https://zulip.com/static/third/gemoji/images/emoji/crossed_flags.png'
p210
sS':wheelchair:'
p211
S'https://zulip.com/static/third/gemoji/images/emoji/wheelchair.png'
p212
sS':raised_hand:'
p213
S'https://zulip.com/static/third/gemoji/images/emoji/raised_hand.png'
p214
sS':beer:'
p215
S'https://zulip.com/static/third/gemoji/images/emoji/beer.png'
p216
sS'hackerschool'
p217
S'https://external-content.zulipcdn.net/1fd50dd9cd66190492ee5c1f         3c82b49a5f6fdf45/687474703a2f2f7765622e6d69742e6564752f6a657373746573732f7777772f7265616c6d656d6f         6a692f6861636b65727363686f6f6c2e706e67'
p218
sS':guitar:'
p219
S'https://zulip.com/static/third/gemoji/images/emoji/guitar.png'
p220
sS':police_car:'
p221
S'https://zulip.com/static/third/gemoji/images/emoji/police_car.png'
p222
sS':pig:'
p223
S'https://zulip.com/static/third/gemoji/images/emoji/pig.png'
p224
sS':radio:'
p225
S'https://zulip.com/static/third/gemoji/images/emoji/radio.png'
p226
sS':unamused:'
p227
S'https://zulip.com/static/third/gemoji/images/emoji/unamused.png'
p228
sS':kissing:'
p229
S'https://zulip.com/static/third/gemoji/images/emoji/kissing.png'
p230
sS':panda_face:'
p231
S'https://zulip.com/static/third/gemoji/images/emoji/panda_face.png'
p232
sS':no_smoking:'
p233
S'https://zulip.com/static/third/gemoji/images/emoji/no_smoking.png'
p234
sS':camel:'
p235
S'https://zulip.com/static/third/gemoji/images/emoji/camel.png'
p236
sS':baseball:'
p237
S'https://zulip.com/static/third/gemoji/images/emoji/baseball.png'
p238
sS':new_moon_with_face:'
p239
S'https://zulip.com/static/third/gemoji/images/emoji/new_moon_with_face.png'
p240
sS':sandal:'
p241
S'https://zulip.com/static/third/gemoji/images/emoji/sandal.png'
p242
sS':boat:'
p243
S'https://zulip.com/static/third/gemoji/images/emoji/boat.png'
p244
sS':mask:'
p245
S'https://zulip.com/static/third/gemoji/images/emoji/mask.png'
p246
sS':three:'
p247
S'https://zulip.com/static/third/gemoji/images/emoji/three.png'
p248
sS':ledger:'
p249
S'https://zulip.com/static/third/gemoji/images/emoji/ledger.png'
p250
sS':slot_machine:'
p251
S'https://zulip.com/static/third/gemoji/images/emoji/slot_machine.png'
p252
sS':fuelpump:'
p253
S'https://zulip.com/static/third/gemoji/images/emoji/fuelpump.png'
p254
sS':rice_scene:'
p255
S'https://zulip.com/static/third/gemoji/images/emoji/rice_scene.png'
p256
sS':rowboat:'
p257
S'https://zulip.com/static/third/gemoji/images/emoji/rowboat.png'
p258
sS':toilet:'
p259
S'https://zulip.com/static/third/gemoji/images/emoji/toilet.png'
p260
sS':hearts:'
p261
S'https://zulip.com/static/third/gemoji/images/emoji/hearts.png'
p262
sS':black_joker:'
p263
S'https://zulip.com/static/third/gemoji/images/emoji/black_joker.png'
p264
sS':hamster:'
p265
S'https://zulip.com/static/third/gemoji/images/emoji/hamster.png'
p266
sS':cat2:'
p267
S'https://zulip.com/static/third/gemoji/images/emoji/cat2.png'
p268
sS':haircut:'
p269
S'https://zulip.com/static/third/gemoji/images/emoji/haircut.png'
p270
sS':sailboat:'
p271
S'https://zulip.com/static/third/gemoji/images/emoji/sailboat.png'
p272
sS':green_book:'
p273
S'https://zulip.com/static/third/gemoji/images/emoji/green_book.png'
p274
sS':six_pointed_star:'
p275
S'https://zulip.com/static/third/gemoji/images/emoji/six_pointed_star.png'
p276
sS':tired_face:'
p277
S'https://zulip.com/static/third/gemoji/images/emoji/tired_face.png'
p278
sS':horse:'
p279
S'https://zulip.com/static/third/gemoji/images/emoji/horse.png'
p280
sS':heart_eyes:'
p281
S'https://zulip.com/static/third/gemoji/images/emoji/heart_eyes.png'
p282
sS':train2:'
p283
S'https://zulip.com/static/third/gemoji/images/emoji/train2.png'
p284
sS':waxing_gibbous_moon:'
p285
S'https://zulip.com/static/third/gemoji/images/emoji/waxing_gibbous_moon.png'
p286
sS':mobile_phone_off:'
p287
S'https://zulip.com/static/third/gemoji/images/emoji/mobile_phone_off.png'
p288
sS':abcd:'
p289
S'https://zulip.com/static/third/gemoji/images/emoji/abcd.png'
p290
sS':card_index:'
p291
S'https://zulip.com/static/third/gemoji/images/emoji/card_index.png'
p292
sS':envelope_with_arrow:'
p293
S'https://zulip.com/static/third/gemoji/images/emoji/envelope_with_arrow.png'
p294
sS':tiger:'
p295
S'https://zulip.com/static/third/gemoji/images/emoji/tiger.png'
p296
sS':two_women_holding_hands:'
p297
S'https://zulip.com/static/third/gemoji/images/emoji/two_women_holding_hands.png'
p298
sS':chart_with_downwards_trend:'
p299
S'https://zulip.com/static/third/gemoji/images/emoji/chart_with_downwards_trend.png'
p300
sS':cinema:'
p301
S'https://zulip.com/static/third/gemoji/images/emoji/cinema.png'
p302
sS':relaxed:'
p303
S'https://zulip.com/static/third/gemoji/images/emoji/relaxed.png'
p304
sS':large_orange_diamond:'
p305
S'https://zulip.com/static/third/gemoji/images/emoji/large_orange_diamond.png'
p306
sS':mountain_railway:'
p307
S'https://zulip.com/static/third/gemoji/images/emoji/mountain_railway.png'
p308
sS':revolving_hearts:'
p309
S'https://zulip.com/static/third/gemoji/images/emoji/revolving_hearts.png'
p310
sS':nine:'
p311
S'https://zulip.com/static/third/gemoji/images/emoji/nine.png'
p312
sS':first_quarter_moon:'
p313
S'https://zulip.com/static/third/gemoji/images/emoji/first_quarter_moon.png'
p314
sS':sunflower:'
p315
S'https://zulip.com/static/third/gemoji/images/emoji/sunflower.png'
p316
sS':ferris_wheel:'
p317
S'https://zulip.com/static/third/gemoji/images/emoji/ferris_wheel.png'
p318
sS':man_with_gua_pi_mao:'
p319
S'https://zulip.com/static/third/gemoji/images/emoji/man_with_gua_pi_mao.png'
p320
sS':first_quarter_moon_with_face:'
p321
S'https://zulip.com/static/third/gemoji/images/emoji/first_quarter_moon_with_face.png'
p322
sS':bus:'
p323
S'https://zulip.com/static/third/gemoji/images/emoji/bus.png'
p324
sS':memo:'
p325
S'https://zulip.com/static/third/gemoji/images/emoji/memo.png'
p326
sS':ear_of_rice:'
p327
S'https://zulip.com/static/third/gemoji/images/emoji/ear_of_rice.png'
p328
sS':kissing_cat:'
p329
S'https://zulip.com/static/third/gemoji/images/emoji/kissing_cat.png'
p330
sS':hourglass_flowing_sand:'
p331
S'https://zulip.com/static/third/gemoji/images/emoji/hourglass_flowing_sand.png'
p332
sS':crocodile:'
p333
S'https://zulip.com/static/third/gemoji/images/emoji/crocodile.png'
p334
sS':deciduous_tree:'
p335
S'https://zulip.com/static/third/gemoji/images/emoji/deciduous_tree.png'
p336
sS':articulated_lorry:'
p337
S'https://zulip.com/static/third/gemoji/images/emoji/articulated_lorry.png'
p338
sS':hankey:'
p339
S'https://zulip.com/static/third/gemoji/images/emoji/hankey.png'
p340
sS':coffee:'
p341
S'https://zulip.com/static/third/gemoji/images/emoji/coffee.png'
p342
sS':eyes:'
p343
S'https://zulip.com/static/third/gemoji/images/emoji/eyes.png'
p344
sS':briefcase:'
p345
S'https://zulip.com/static/third/gemoji/images/emoji/briefcase.png'
p346
sS':koko:'
p347
S'https://zulip.com/static/third/gemoji/images/emoji/koko.png'
p348
sS':tongue:'
p349
S'https://zulip.com/static/third/gemoji/images/emoji/tongue.png'
p350
sS':keycap_ten:'
p351
S'https://zulip.com/static/third/gemoji/images/emoji/keycap_ten.png'
p352
sS':running:'
p353
S'https://zulip.com/static/third/gemoji/images/emoji/running.png'
p354
sS':church:'
p355
S'https://zulip.com/static/third/gemoji/images/emoji/church.png'
p356
sS':left_luggage:'
p357
S'https://zulip.com/static/third/gemoji/images/emoji/left_luggage.png'
p358
sS':dango:'
p359
S'https://zulip.com/static/third/gemoji/images/emoji/dango.png'
p360
sS':ship:'
p361
S'https://zulip.com/static/third/gemoji/images/emoji/ship.png'
p362
sS':metro:'
p363
S'https://zulip.com/static/third/gemoji/images/emoji/metro.png'
p364
sS':tangerine:'
p365
S'https://zulip.com/static/third/gemoji/images/emoji/tangerine.png'
p366
sS':boot:'
p367
S'https://zulip.com/static/third/gemoji/images/emoji/boot.png'
p368
sS':blowfish:'
p369
S'https://zulip.com/static/third/gemoji/images/emoji/blowfish.png'
p370
sS':heart_decoration:'
p371
S'https://zulip.com/static/third/gemoji/images/emoji/heart_decoration.png'
p372
sS':grey_exclamation:'
p373
S'https://zulip.com/static/third/gemoji/images/emoji/grey_exclamation.png'
p374
sS':flags:'
p375
S'https://zulip.com/static/third/gemoji/images/emoji/flags.png'
p376
sS':thumbsdown:'
p377
S'https://zulip.com/static/third/gemoji/images/emoji/thumbsdown.png'
p378
sS':black_small_square:'
p379
S'https://zulip.com/static/third/gemoji/images/emoji/black_small_square.png'
p380
sS':open_mouth:'
p381
S'https://zulip.com/static/third/gemoji/images/emoji/open_mouth.png'
p382
sS':couple_with_heart:'
p383
S'https://zulip.com/static/third/gemoji/images/emoji/couple_with_heart.png'
p384
sS':neutral_face:'
p385
S'https://zulip.com/static/third/gemoji/images/emoji/neutral_face.png'
p386
sS':broken_heart:'
p387
S'https://zulip.com/static/third/gemoji/images/emoji/broken_heart.png'
p388
sS':fist:'
p389
S'https://zulip.com/static/third/gemoji/images/emoji/fist.png'
p390
sS':chocolate_bar:'
p391
S'https://zulip.com/static/third/gemoji/images/emoji/chocolate_bar.png'
p392
sS':white_square_button:'
p393
S'https://zulip.com/static/third/gemoji/images/emoji/white_square_button.png'
p394
sS':smile:'
p395
S'https://zulip.com/static/third/gemoji/images/emoji/smile.png'
p396
sS':no_good:'
p397
S'https://zulip.com/static/third/gemoji/images/emoji/no_good.png'
p398
sS':calling:'
p399
S'https://zulip.com/static/third/gemoji/images/emoji/calling.png'
p400
sS':small_blue_diamond:'
p401
S'https://zulip.com/static/third/gemoji/images/emoji/small_blue_diamond.png'
p402
sS':white_circle:'
p403
S'https://zulip.com/static/third/gemoji/images/emoji/white_circle.png'
p404
sS':cloud:'
p405
S'https://zulip.com/static/third/gemoji/images/emoji/cloud.png'
p406
sS':page_with_curl:'
p407
S'https://zulip.com/static/third/gemoji/images/emoji/page_with_curl.png'
p408
sS':angel:'
p409
S'https://zulip.com/static/third/gemoji/images/emoji/angel.png'
p410
sS':blue_heart:'
p411
S'https://zulip.com/static/third/gemoji/images/emoji/blue_heart.png'
p412
sS':calendar:'
p413
S'https://zulip.com/static/third/gemoji/images/emoji/calendar.png'
p414
sS':sparkling_heart:'
p415
S'https://zulip.com/static/third/gemoji/images/emoji/sparkling_heart.png'
p416
sS':end:'
p417
S'https://zulip.com/static/third/gemoji/images/emoji/end.png'
p418
sS':black_medium_square:'
p419
S'https://zulip.com/static/third/gemoji/images/emoji/black_medium_square.png'
p420
sS':boom:'
p421
S'https://zulip.com/static/third/gemoji/images/emoji/boom.png'
p422
sS':point_right:'
p423
S'https://zulip.com/static/third/gemoji/images/emoji/point_right.png'
p424
sS':man_with_turban:'
p425
S'https://zulip.com/static/third/gemoji/images/emoji/man_with_turban.png'
p426
sS':sunny:'
p427
S'https://zulip.com/static/third/gemoji/images/emoji/sunny.png'
p428
sS':triangular_flag_on_post:'
p429
S'https://zulip.com/static/third/gemoji/images/emoji/triangular_flag_on_post.png'
p430
sS':oncoming_taxi:'
p431
S'https://zulip.com/static/third/gemoji/images/emoji/oncoming_taxi.png'
p432
sS':fried_shrimp:'
p433
S'https://zulip.com/static/third/gemoji/images/emoji/fried_shrimp.png'
p434
sS':small_red_triangle_down:'
p435
S'https://zulip.com/static/third/gemoji/images/emoji/small_red_triangle_down.png'
p436
sS':interrobang:'
p437
S'https://zulip.com/static/third/gemoji/images/emoji/interrobang.png'
p438
sS':blossom:'
p439
S'https://zulip.com/static/third/gemoji/images/emoji/blossom.png'
p440
sS':black_large_square:'
p441
S'https://zulip.com/static/third/gemoji/images/emoji/black_large_square.png'
p442
sS':no_mobile_phones:'
p443
S'https://zulip.com/static/third/gemoji/images/emoji/no_mobile_phones.png'
p444
sS':anguished:'
p445
S'https://zulip.com/static/third/gemoji/images/emoji/anguished.png'
p446
sS':left_right_arrow:'
p447
S'https://zulip.com/static/third/gemoji/images/emoji/left_right_arrow.png'
p448
sS':non-potable_water:'
p449
S'https://zulip.com/static/third/gemoji/images/emoji/non-potable_water.png'
p450
sS':stew:'
p451
S'https://zulip.com/static/third/gemoji/images/emoji/stew.png'
p452
sS':horse_racing:'
p453
S'https://zulip.com/static/third/gemoji/images/emoji/horse_racing.png'
p454
sS':droplet:'
p455
S'https://zulip.com/static/third/gemoji/images/emoji/droplet.png'
p456
sS':womans_clothes:'
p457
S'https://zulip.com/static/third/gemoji/images/emoji/womans_clothes.png'
p458
sS':oncoming_police_car:'
p459
S'https://zulip.com/static/third/gemoji/images/emoji/oncoming_police_car.png'
p460
sS':name_badge:'
p461
S'https://zulip.com/static/third/gemoji/images/emoji/name_badge.png'
p462
sS':crown:'
p463
S'https://zulip.com/static/third/gemoji/images/emoji/crown.png'
p464
sS':package:'
p465
S'https://zulip.com/static/third/gemoji/images/emoji/package.png'
p466
sS':partly_sunny:'
p467
S'https://zulip.com/static/third/gemoji/images/emoji/partly_sunny.png'
p468
sS':arrow_double_down:'
p469
S'https://zulip.com/static/third/gemoji/images/emoji/arrow_double_down.png'
p470
sS':signal_strength:'
p471
S'https://zulip.com/static/third/gemoji/images/emoji/signal_strength.png'
p472
sS':musical_score:'
p473
S'https://zulip.com/static/third/gemoji/images/emoji/musical_score.png'
p474
sS':point_down:'
p475
S'https://zulip.com/static/third/gemoji/images/emoji/point_down.png'
p476
sS':helicopter:'
p477
S'https://zulip.com/static/third/gemoji/images/emoji/helicopter.png'
p478
sS':nose:'
p479
S'https://zulip.com/static/third/gemoji/images/emoji/nose.png'
p480
sS':speech_balloon:'
p481
S'https://zulip.com/static/third/gemoji/images/emoji/speech_balloon.png'
p482
sS':snowboarder:'
p483
S'https://zulip.com/static/third/gemoji/images/emoji/snowboarder.png'
p484
sS':diamonds:'
p485
S'https://zulip.com/static/third/gemoji/images/emoji/diamonds.png'
p486
sS':postal_horn:'
p487
S'https://zulip.com/static/third/gemoji/images/emoji/postal_horn.png'
p488
sS':water_buffalo:'
p489
S'https://zulip.com/static/third/gemoji/images/emoji/water_buffalo.png'
p490
sS':bomb:'
p491
S'https://zulip.com/static/third/gemoji/images/emoji/bomb.png'
p492
sS':ballot_box_with_check:'
p493
S'https://zulip.com/static/third/gemoji/images/emoji/ballot_box_with_check.png'
p494
sS':fallen_leaf:'
p495
S'https://zulip.com/static/third/gemoji/images/emoji/fallen_leaf.png'
p496
sS':ticket:'
p497
S'https://zulip.com/static/third/gemoji/images/emoji/ticket.png'
p498
sS':statue_of_liberty:'
p499
S'https://zulip.com/static/third/gemoji/images/emoji/statue_of_liberty.png'
p500
sS':airplane:'
p501
S'https://zulip.com/static/third/gemoji/images/emoji/airplane.png'
p502
sS':hash:'
p503
S'https://zulip.com/static/third/gemoji/images/emoji/hash.png'
p504
sS':negative_squared_cross_mark:'
p505
S'https://zulip.com/static/third/gemoji/images/emoji/negative_squared_cross_mark.png'
p506
sS':alien:'
p507
S'https://zulip.com/static/third/gemoji/images/emoji/alien.png'
p508
sS':mountain_cableway:'
p509
S'https://zulip.com/static/third/gemoji/images/emoji/mountain_cableway.png'
p510
sS':moyai:'
p511
S'https://zulip.com/static/third/gemoji/images/emoji/moyai.png'
p512
sS':wink:'
p513
S'https://zulip.com/static/third/gemoji/images/emoji/wink.png'
p514
sS':wolf:'
p515
S'https://zulip.com/static/third/gemoji/images/emoji/wolf.png'
p516
sS':monorail:'
p517
S'https://zulip.com/static/third/gemoji/images/emoji/monorail.png'
p518
sS':unlock:'
p519
S'https://zulip.com/static/third/gemoji/images/emoji/unlock.png'
p520
sS':no_mouth:'
p521
S'https://zulip.com/static/third/gemoji/images/emoji/no_mouth.png'
p522
sS':baby_bottle:'
p523
S'https://zulip.com/static/third/gemoji/images/emoji/baby_bottle.png'
p524
sS':japan:'
p525
S'https://zulip.com/static/third/gemoji/images/emoji/japan.png'
p526
sS':sweet_potato:'
p527
S'https://zulip.com/static/third/gemoji/images/emoji/sweet_potato.png'
p528
sS':eight_spoked_asterisk:'
p529
S'https://zulip.com/static/third/gemoji/images/emoji/eight_spoked_asterisk.png'
p530
sS':ophiuchus:'
p531
S'https://zulip.com/static/third/gemoji/images/emoji/ophiuchus.png'
p532
sS':mag_right:'
p533
S'https://zulip.com/static/third/gemoji/images/emoji/mag_right.png'
p534
sS':snowflake:'
p535
S'https://zulip.com/static/third/gemoji/images/emoji/snowflake.png'
p536
sS':registered:'
p537
S'https://zulip.com/static/third/gemoji/images/emoji/registered.png'
p538
sS':arrow_heading_down:'
p539
S'https://zulip.com/static/third/gemoji/images/emoji/arrow_heading_down.png'
p540
sS':train:'
p541
S'https://zulip.com/static/third/gemoji/images/emoji/train.png'
p542
sS':blue_car:'
p543
S'https://zulip.com/static/third/gemoji/images/emoji/blue_car.png'
p544
sS':minibus:'
p545
S'https://zulip.com/static/third/gemoji/images/emoji/minibus.png'
p546
sS':flushed:'
p547
S'https://zulip.com/static/third/gemoji/images/emoji/flushed.png'
p548
sS':fax:'
p549
S'https://zulip.com/static/third/gemoji/images/emoji/fax.png'
p550
sS':scream:'
p551
S'https://zulip.com/static/third/gemoji/images/emoji/scream.png'
p552
sS':older_man:'
p553
S'https://zulip.com/static/third/gemoji/images/emoji/older_man.png'
p554
sS':earth_asia:'
p555
S'https://zulip.com/static/third/gemoji/images/emoji/earth_asia.png'
p556
sS':custard:'
p557
S'https://zulip.com/static/third/gemoji/images/emoji/custard.png'
p558
sS':mailbox:'
p559
S'https://zulip.com/static/third/gemoji/images/emoji/mailbox.png'
p560
sS':hotsprings:'
p561
S'https://zulip.com/static/third/gemoji/images/emoji/hotsprings.png'
p562
sS':tulip:'
p563
S'https://zulip.com/static/third/gemoji/images/emoji/tulip.png'
p564
sS':mans_shoe:'
p565
S'https://zulip.com/static/third/gemoji/images/emoji/mans_shoe.png'
p566
sS':ski:'
p567
S'https://zulip.com/static/third/gemoji/images/emoji/ski.png'
p568
sS':hospital:'
p569
S'https://zulip.com/static/third/gemoji/images/emoji/hospital.png'
p570
sS':books:'
p571
S'https://zulip.com/static/third/gemoji/images/emoji/books.png'
p572
sS':foggy:'
p573
S'https://zulip.com/static/third/gemoji/images/emoji/foggy.png'
p574
sS':bread:'
p575
S'https://zulip.com/static/third/gemoji/images/emoji/bread.png'
p576
sS':notes:'
p577
S'https://zulip.com/static/third/gemoji/images/emoji/notes.png'
p578
sS':fish_cake:'
p579
S'https://zulip.com/static/third/gemoji/images/emoji/fish_cake.png'
p580
sS':sushi:'
p581
S'https://zulip.com/static/third/gemoji/images/emoji/sushi.png'
p582
sS':couplekiss:'
p583
S'https://zulip.com/static/third/gemoji/images/emoji/couplekiss.png'
p584
sS':bow:'
p585
S'https://zulip.com/static/third/gemoji/images/emoji/bow.png'
p586
sS':bear:'
p587
S'https://zulip.com/static/third/gemoji/images/emoji/bear.png'
p588
sS':date:'
p589
S'https://zulip.com/static/third/gemoji/images/emoji/date.png'
p590
sS':tokyo_tower:'
p591
S'https://zulip.com/static/third/gemoji/images/emoji/tokyo_tower.png'
p592
sS':tropical_drink:'
p593
S'https://zulip.com/static/third/gemoji/images/emoji/tropical_drink.png'
p594
sS':black_nib:'
p595
S'https://zulip.com/static/third/gemoji/images/emoji/black_nib.png'
p596
sS':tent:'
p597
S'https://zulip.com/static/third/gemoji/images/emoji/tent.png'
p598
sS':loop:'
p599
S'https://zulip.com/static/third/gemoji/images/emoji/loop.png'
p600
sS':confused:'
p601
S'https://zulip.com/static/third/gemoji/images/emoji/confused.png'
p602
sS':information_desk_person:'
p603
S'https://zulip.com/static/third/gemoji/images/emoji/information_desk_person.png'
p604
sS':pill:'
p605
S'https://zulip.com/static/third/gemoji/images/emoji/pill.png'
p606
sS':sunrise:'
p607
S'https://zulip.com/static/third/gemoji/images/emoji/sunrise.png'
p608
sS':back:'
p609
S'https://zulip.com/static/third/gemoji/images/emoji/back.png'
p610
sS':key:'
p611
S'https://zulip.com/static/third/gemoji/images/emoji/key.png'
p612
sS':surfer:'
p613
S'https://zulip.com/static/third/gemoji/images/emoji/surfer.png'
p614
sS':heavy_check_mark:'
p615
S'https://zulip.com/static/third/gemoji/images/emoji/heavy_check_mark.png'
p616
sS':electric_plug:'
p617
S'https://zulip.com/static/third/gemoji/images/emoji/electric_plug.png'
p618
sS':speak_no_evil:'
p619
S'https://zulip.com/static/third/gemoji/images/emoji/speak_no_evil.png'
p620
sS':ambulance:'
p621
S'https://zulip.com/static/third/gemoji/images/emoji/ambulance.png'
p622
sS':radio_button:'
p623
S'https://zulip.com/static/third/gemoji/images/emoji/radio_button.png'
p624
sS':flipper:'
p625
S'https://zulip.com/static/third/gemoji/images/emoji/flipper.png'
p626
sS':star:'
p627
S'https://zulip.com/static/third/gemoji/images/emoji/star.png'
p628
sS':black_square:'
p629
S'https://zulip.com/static/third/gemoji/images/emoji/black_square.png'
p630
sS':melon:'
p631
S'https://zulip.com/static/third/gemoji/images/emoji/melon.png'
p632
sS':construction:'
p633
S'https://zulip.com/static/third/gemoji/images/emoji/construction.png'
p634
sS':grin:'
p635
S'https://zulip.com/static/third/gemoji/images/emoji/grin.png'
p636
sS':gemini:'
p637
S'https://zulip.com/static/third/gemoji/images/emoji/gemini.png'
p638
sS':accept:'
p639
S'https://zulip.com/static/third/gemoji/images/emoji/accept.png'
p640
sS':bee:'
p641
S'https://zulip.com/static/third/gemoji/images/emoji/bee.png'
p642
sS':round_pushpin:'
p643
S'https://zulip.com/static/third/gemoji/images/emoji/round_pushpin.png'
p644
sS':ideograph_advantage:'
p645
S'https://zulip.com/static/third/gemoji/images/emoji/ideograph_advantage.png'
p646
sS':spaghetti:'
p647
S'https://zulip.com/static/third/gemoji/images/emoji/spaghetti.png'
p648
sS':pig2:'
p649
S'https://zulip.com/static/third/gemoji/images/emoji/pig2.png'
p650
sS':underage:'
p651
S'https://zulip.com/static/third/gemoji/images/emoji/underage.png'
p652
sS':no_entry_sign:'
p653
S'https://zulip.com/static/third/gemoji/images/emoji/no_entry_sign.png'
p654
sS':lantern:'
p655
S'https://zulip.com/static/third/gemoji/images/emoji/lantern.png'
p656
sS':convenience_store:'
p657
S'https://zulip.com/static/third/gemoji/images/emoji/convenience_store.png'
p658
sS':sunrise_over_mountains:'
p659
S'https://zulip.com/static/third/gemoji/images/emoji/sunrise_over_mountains.png'
p660
sS':free:'
p661
S'https://zulip.com/static/third/gemoji/images/emoji/free.png'
p662
sS':mag:'
p663
S'https://zulip.com/static/third/gemoji/images/emoji/mag.png'
p664
sS':watermelon:'
p665
S'https://zulip.com/static/third/gemoji/images/emoji/watermelon.png'
p666
sS':white_flower:'
p667
S'https://zulip.com/static/third/gemoji/images/emoji/white_flower.png'
p668
sS':ram:'
p669
S'https://zulip.com/static/third/gemoji/images/emoji/ram.png'
p670
sS':dancer:'
p671
S'https://zulip.com/static/third/gemoji/images/emoji/dancer.png'
p672
sS':innocent:'
p673
S'https://zulip.com/static/third/gemoji/images/emoji/innocent.png'
p674
sS':yellow_heart:'
p675
S'https://zulip.com/static/third/gemoji/images/emoji/yellow_heart.png'
p676
sS':sos:'
p677
S'https://zulip.com/static/third/gemoji/images/emoji/sos.png'
p678
sS':triangular_ruler:'
p679
S'https://zulip.com/static/third/gemoji/images/emoji/triangular_ruler.png'
p680
sS':tada:'
p681
S'https://zulip.com/static/third/gemoji/images/emoji/tada.png'
p682
sS':heavy_multiplication_x:'
p683
S'https://zulip.com/static/third/gemoji/images/emoji/heavy_multiplication_x.png'
p684
sS':frowning:'
p685
S'https://zulip.com/static/third/gemoji/images/emoji/frowning.png'
p686
sS':hand:'
p687
S'https://zulip.com/static/third/gemoji/images/emoji/hand.png'
p688
sS':cancer:'
p689
S'https://zulip.com/static/third/gemoji/images/emoji/cancer.png'
p690
sS':tshirt:'
p691
S'https://zulip.com/static/third/gemoji/images/emoji/tshirt.png'
p692
sS':do_not_litter:'
p693
S'https://zulip.com/static/third/gemoji/images/emoji/do_not_litter.png'
p694
sS':arrow_forward:'
p695
S'https://zulip.com/static/third/gemoji/images/emoji/arrow_forward.png'
p696
sS':smile_cat:'
p697
S'https://zulip.com/static/third/gemoji/images/emoji/smile_cat.png'
p698
sS':nut_and_bolt:'
p699
S'https://zulip.com/static/third/gemoji/images/emoji/nut_and_bolt.png'
p700
sS':restroom:'
p701
S'https://zulip.com/static/third/gemoji/images/emoji/restroom.png'
p702
sS':woman:'
p703
S'https://zulip.com/static/third/gemoji/images/emoji/woman.png'
p704
sS':camera:'
p705
S'https://zulip.com/static/third/gemoji/images/emoji/camera.png'
p706
sS':potable_water:'
p707
S'https://zulip.com/static/third/gemoji/images/emoji/potable_water.png'
p708
sS':athletic_shoe:'
p709
S'https://zulip.com/static/third/gemoji/images/emoji/athletic_shoe.png'
p710
sS':top:'
p711
S'https://zulip.com/static/third/gemoji/images/emoji/top.png'
p712
sS':joy_cat:'
p713
S'https://zulip.com/static/third/gemoji/images/emoji/joy_cat.png'
p714
sS':bathtub:'
p715
S'https://zulip.com/static/third/gemoji/images/emoji/bathtub.png'
p716
sS':arrow_upper_left:'
p717
S'https://zulip.com/static/third/gemoji/images/emoji/arrow_upper_left.png'
p718
sS':two:'
p719
S'https://zulip.com/static/third/gemoji/images/emoji/two.png'
p720
sS':loudspeaker:'
p721
S'https://zulip.com/static/third/gemoji/images/emoji/loudspeaker.png'
p722
sS':apple:'
p723
S'https://zulip.com/static/third/gemoji/images/emoji/apple.png'
p724
sS':balloon:'
p725
S'https://zulip.com/static/third/gemoji/images/emoji/balloon.png'
p726
sS':low_brightness:'
p727
S'https://zulip.com/static/third/gemoji/images/emoji/low_brightness.png'
p728
sS':no_entry:'
p729
S'https://zulip.com/static/third/gemoji/images/emoji/no_entry.png'
p730
sS':pizza:'
p731
S'https://zulip.com/static/third/gemoji/images/emoji/pizza.png'
p732
sS':new_moon:'
p733
S'https://zulip.com/static/third/gemoji/images/emoji/new_moon.png'
p734
sS':tiger2:'
p735
S'https://zulip.com/static/third/gemoji/images/emoji/tiger2.png'
p736
sS':womans_hat:'
p737
S'https://zulip.com/static/third/gemoji/images/emoji/womans_hat.png'
p738
sS':sake:'
p739
S'https://zulip.com/static/third/gemoji/images/emoji/sake.png'
p740
sS':confetti_ball:'
p741
S'https://zulip.com/static/third/gemoji/images/emoji/confetti_ball.png'
p742
sS':closed_book:'
p743
S'https://zulip.com/static/third/gemoji/images/emoji/closed_book.png'
p744
sS':icecream:'
p745
S'https://zulip.com/static/third/gemoji/images/emoji/icecream.png'
p746
sS':moon:'
p747
S'https://zulip.com/static/third/gemoji/images/emoji/moon.png'
p748
sS':skull:'
p749
S'https://zulip.com/static/third/gemoji/images/emoji/skull.png'
p750
sS':fork_and_knife:'
p751
S'https://zulip.com/static/third/gemoji/images/emoji/fork_and_knife.png'
p752
sS':maple_leaf:'
p753
S'https://zulip.com/static/third/gemoji/images/emoji/maple_leaf.png'
p754
sS':bank:'
p755
S'https://zulip.com/static/third/gemoji/images/emoji/bank.png'
p756
sS':busstop:'
p757
S'https://zulip.com/static/third/gemoji/images/emoji/busstop.png'
p758
sS':hackerschool:'
p759
S'https://zulip.com/static/third/gemoji/images/emoji/hackerschool.png'
p760
sS':fire:'
p761
S'https://zulip.com/static/third/gemoji/images/emoji/fire.png'
p762
sS':iphone:'
p763
S'https://zulip.com/static/third/gemoji/images/emoji/iphone.png'
p764
sS':stuck_out_tongue:'
p765
S'https://zulip.com/static/third/gemoji/images/emoji/stuck_out_tongue.png'
p766
sS':snake:'
p767
S'https://zulip.com/static/third/gemoji/images/emoji/snake.png'
p768
sS':bookmark_tabs:'
p769
S'https://zulip.com/static/third/gemoji/images/emoji/bookmark_tabs.png'
p770
sS':mouse:'
p771
S'https://zulip.com/static/third/gemoji/images/emoji/mouse.png'
p772
sS':syringe:'
p773
S'https://zulip.com/static/third/gemoji/images/emoji/syringe.png'
p774
sS':cold_sweat:'
p775
S'https://zulip.com/static/third/gemoji/images/emoji/cold_sweat.png'
p776
sS':leopard:'
p777
S'https://zulip.com/static/third/gemoji/images/emoji/leopard.png'
p778
sS':rice_ball:'
p779
S'https://zulip.com/static/third/gemoji/images/emoji/rice_ball.png'
p780
sS':snowman:'
p781
S'https://zulip.com/static/third/gemoji/images/emoji/snowman.png'
p782
sS':clapper:'
p783
S'https://zulip.com/static/third/gemoji/images/emoji/clapper.png'
p784
sS':barber:'
p785
S'https://zulip.com/static/third/gemoji/images/emoji/barber.png'
p786
sS':running_shirt_with_sash:'
p787
S'https://zulip.com/static/third/gemoji/images/emoji/running_shirt_with_sash.png'
p788
sS':bowling:'
p789
S'https://zulip.com/static/third/gemoji/images/emoji/bowling.png'
p790
sS':tram:'
p791
S'https://zulip.com/static/third/gemoji/images/emoji/tram.png'
p792
sS':aquarius:'
p793
S'https://zulip.com/static/third/gemoji/images/emoji/aquarius.png'
p794
sS':angry:'
p795
S'https://zulip.com/static/third/gemoji/images/emoji/angry.png'
p796
sS':gift:'
p797
S'https://zulip.com/static/third/gemoji/images/emoji/gift.png'
p798
sS':telescope:'
p799
S'https://zulip.com/static/third/gemoji/images/emoji/telescope.png'
p800
sS':rose:'
p801
S'https://zulip.com/static/third/gemoji/images/emoji/rose.png'
p802
sS':scorpius:'
p803
S'https://zulip.com/static/third/gemoji/images/emoji/scorpius.png'
p804
sS':one:'
p805
S'https://zulip.com/static/third/gemoji/images/emoji/one.png'
p806
sS':8ball:'
p807
S'https://zulip.com/static/third/gemoji/images/emoji/8ball.png'
p808
sS':bamboo:'
p809
S'https://zulip.com/static/third/gemoji/images/emoji/bamboo.png'
p810
sS':chestnut:'
p811
S'https://zulip.com/static/third/gemoji/images/emoji/chestnut.png'
p812
sS':game_die:'
p813
S'https://zulip.com/static/third/gemoji/images/emoji/game_die.png'
p814
sS':sweat:'
p815
S'https://zulip.com/static/third/gemoji/images/emoji/sweat.png'
p816
sS':sleepy:'
p817
S'https://zulip.com/static/third/gemoji/images/emoji/sleepy.png'
p818
sS':smiling_imp:'
p819
S'https://zulip.com/static/third/gemoji/images/emoji/smiling_imp.png'
p820
sS':anchor:'
p821
S'https://zulip.com/static/third/gemoji/images/emoji/anchor.png'
p822
sS':collision:'
p823
S'https://zulip.com/static/third/gemoji/images/emoji/collision.png'
p824
sS':heavy_dollar_sign:'
p825
S'https://zulip.com/static/third/gemoji/images/emoji/heavy_dollar_sign.png'
p826
sS':euro:'
p827
S'https://zulip.com/static/third/gemoji/images/emoji/euro.png'
p828
sS':dress:'
p829
S'https://zulip.com/static/third/gemoji/images/emoji/dress.png'
p830
sS':white_large_square:'
p831
S'https://zulip.com/static/third/gemoji/images/emoji/white_large_square.png'
p832
sS':disappointed_relieved:'
p833
S'https://zulip.com/static/third/gemoji/images/emoji/disappointed_relieved.png'
p834
sS':whale2:'
p835
S'https://zulip.com/static/third/gemoji/images/emoji/whale2.png'
p836
sS':punch:'
p837
S'https://zulip.com/static/third/gemoji/images/emoji/punch.png'
p838
sS':yen:'
p839
S'https://zulip.com/static/third/gemoji/images/emoji/yen.png'
p840
sS':bicyclist:'
p841
S'https://zulip.com/static/third/gemoji/images/emoji/bicyclist.png'
p842
sS':zulip:'
p843
S'https://zulip.com/static/third/gemoji/images/emoji/zulip.png'
p844
sS':steam_locomotive:'
p845
S'https://zulip.com/static/third/gemoji/images/emoji/steam_locomotive.png'
p846
sS':baby_chick:'
p847
S'https://zulip.com/static/third/gemoji/images/emoji/baby_chick.png'
p848
sS':speedboat:'
p849
S'https://zulip.com/static/third/gemoji/images/emoji/speedboat.png'
p850
sS':closed_lock_with_key:'
p851
S'https://zulip.com/static/third/gemoji/images/emoji/closed_lock_with_key.png'
p852
sS':performing_arts:'
p853
S'https://zulip.com/static/third/gemoji/images/emoji/performing_arts.png'
p854
sS':house:'
p855
S'https://zulip.com/static/third/gemoji/images/emoji/house.png'
p856
sS':japanese_ogre:'
p857
S'https://zulip.com/static/third/gemoji/images/emoji/japanese_ogre.png'
p858
sS':lock:'
p859
S'https://zulip.com/static/third/gemoji/images/emoji/lock.png'
p860
sS':pencil:'
p861
S'https://zulip.com/static/third/gemoji/images/emoji/pencil.png'
p862
sS':newspaper:'
p863
S'https://zulip.com/static/third/gemoji/images/emoji/newspaper.png'
p864
sS':orange_book:'
p865
S'https://zulip.com/static/third/gemoji/images/emoji/orange_book.png'
p866
sS':bar_chart:'
p867
S'https://zulip.com/static/third/gemoji/images/emoji/bar_chart.png'
p868
sS':battery:'
p869
S'https://zulip.com/static/third/gemoji/images/emoji/battery.png'
p870
sS':kissing_heart:'
p871
S'https://zulip.com/static/third/gemoji/images/emoji/kissing_heart.png'
p872
sS':facepunch:'
p873
S'https://zulip.com/static/third/gemoji/images/emoji/facepunch.png'
p874
sS':cactus:'
p875
S'https://zulip.com/static/third/gemoji/images/emoji/cactus.png'
p876
sS':honey_pot:'
p877
S'https://zulip.com/static/third/gemoji/images/emoji/honey_pot.png'
p878
sS':cry:'
p879
S'https://zulip.com/static/third/gemoji/images/emoji/cry.png'
p880
sS':door:'
p881
S'https://zulip.com/static/third/gemoji/images/emoji/door.png'
p882
sS':cherries:'
p883
S'https://zulip.com/static/third/gemoji/images/emoji/cherries.png'
p884
sS':mailbox_with_no_mail:'
p885
S'https://zulip.com/static/third/gemoji/images/emoji/mailbox_with_no_mail.png'
p886
sS':parking:'
p887
S'https://zulip.com/static/third/gemoji/images/emoji/parking.png'
p888
sS':trophy:'
p889
S'https://zulip.com/static/third/gemoji/images/emoji/trophy.png'
p890
sS':european_post_office:'
p891
S'https://zulip.com/static/third/gemoji/images/emoji/european_post_office.png'
p892
sS':cupid:'
p893
S'https://zulip.com/static/third/gemoji/images/emoji/cupid.png'
p894
sS':space_invader:'
p895
S'https://zulip.com/static/third/gemoji/images/emoji/space_invader.png'
p896
sS':fries:'
p897
S'https://zulip.com/static/third/gemoji/images/emoji/fries.png'
p898
sS':musical_note:'
p899
S'https://zulip.com/static/third/gemoji/images/emoji/musical_note.png'
p900
sS':guardsman:'
p901
S'https://zulip.com/static/third/gemoji/images/emoji/guardsman.png'
p902
sS':umbrella:'
p903
S'https://zulip.com/static/third/gemoji/images/emoji/umbrella.png'
p904
sS':love_hotel:'
p905
S'https://zulip.com/static/third/gemoji/images/emoji/love_hotel.png'
p906
sS':red_circle:'
p907
S'https://zulip.com/static/third/gemoji/images/emoji/red_circle.png'
p908
sS':sparkles:'
p909
S'https://zulip.com/static/third/gemoji/images/emoji/sparkles.png'
p910
sS':mountain_bicyclist:'
p911
S'https://zulip.com/static/third/gemoji/images/emoji/mountain_bicyclist.png'
p912
sS':octopus:'
p913
S'https://zulip.com/static/third/gemoji/images/emoji/octopus.png'
p914
sS':secret:'
p915
S'https://zulip.com/static/third/gemoji/images/emoji/secret.png'
p916
sS':satisfied:'
p917
S'https://zulip.com/static/third/gemoji/images/emoji/satisfied.png'
p918
sS':leftwards_arrow_with_hook:'
p919
S'https://zulip.com/static/third/gemoji/images/emoji/leftwards_arrow_with_hook.png'
p920
sS':fishing_pole_and_fish:'
p921
S'https://zulip.com/static/third/gemoji/images/emoji/fishing_pole_and_fish.png'
p922
sS':violin:'
p923
S'https://zulip.com/static/third/gemoji/images/emoji/violin.png'
p924
sS':chart_with_upwards_trend:'
p925
S'https://zulip.com/static/third/gemoji/images/emoji/chart_with_upwards_trend.png'
p926
sS':walking:'
p927
S'https://zulip.com/static/third/gemoji/images/emoji/walking.png'
p928
sS':wedding:'
p929
S'https://zulip.com/static/third/gemoji/images/emoji/wedding.png'
p930
sS':person_frowning:'
p931
S'https://zulip.com/static/third/gemoji/images/emoji/person_frowning.png'
p932
sS':heavy_plus_sign:'
p933
S'https://zulip.com/static/third/gemoji/images/emoji/heavy_plus_sign.png'
p934
sS':beginner:'
p935
S'https://zulip.com/static/third/gemoji/images/emoji/beginner.png'
p936
sS':four_leaf_clover:'
p937
S'https://zulip.com/static/third/gemoji/images/emoji/four_leaf_clover.png'
p938
sS':chicken:'
p939
S'https://zulip.com/static/third/gemoji/images/emoji/chicken.png'
p940
sS':vertical_traffic_light:'
p941
S'https://zulip.com/static/third/gemoji/images/emoji/vertical_traffic_light.png'
p942
sS':taurus:'
p943
S'https://zulip.com/static/third/gemoji/images/emoji/taurus.png'
p944
sS':last_quarter_moon_with_face:'
p945
S'https://zulip.com/static/third/gemoji/images/emoji/last_quarter_moon_with_face.png'
p946
sS':banana:'
p947
S'https://zulip.com/static/third/gemoji/images/emoji/banana.png'
p948
sS':arrow_up_down:'
p949
S'https://zulip.com/static/third/gemoji/images/emoji/arrow_up_down.png'
p950
sS':book:'
p951
S'https://zulip.com/static/third/gemoji/images/emoji/book.png'
p952
sS':video_camera:'
p953
S'https://zulip.com/static/third/gemoji/images/emoji/video_camera.png'
p954
sS':capricorn:'
p955
S'https://zulip.com/static/third/gemoji/images/emoji/capricorn.png'
p956
sS':christmas_tree:'
p957
S'https://zulip.com/static/third/gemoji/images/emoji/christmas_tree.png'
p958
sS':paperclip:'
p959
S'https://zulip.com/static/third/gemoji/images/emoji/paperclip.png'
p960
sS':person_with_blond_hair:'
p961
S'https://zulip.com/static/third/gemoji/images/emoji/person_with_blond_hair.png'
p962
sS':cow2:'
p963
S'https://zulip.com/static/third/gemoji/images/emoji/cow2.png'
p964
sS':ocean:'
p965
S'https://zulip.com/static/third/gemoji/images/emoji/ocean.png'
p966
sS':stuck_out_tongue_closed_eyes:'
p967
S'https://zulip.com/static/third/gemoji/images/emoji/stuck_out_tongue_closed_eyes.png'
p968
sS':six:'
p969
S'https://zulip.com/static/third/gemoji/images/emoji/six.png'
p970
sS':star2:'
p971
S'https://zulip.com/static/third/gemoji/images/emoji/star2.png'
p972
sS':link:'
p973
S'https://zulip.com/static/third/gemoji/images/emoji/link.png'
p974
sS':muscle:'
p975
S'https://zulip.com/static/third/gemoji/images/emoji/muscle.png'
p976
sS':sob:'
p977
S'https://zulip.com/static/third/gemoji/images/emoji/sob.png'
p978
sS':older_woman:'
p979
S'https://zulip.com/static/third/gemoji/images/emoji/older_woman.png'
p980
sS':soccer:'
p981
S'https://zulip.com/static/third/gemoji/images/emoji/soccer.png'
p982
sS':oden:'
p983
S'https://zulip.com/static/third/gemoji/images/emoji/oden.png'
p984
sS':grimacing:'
p985
S'https://zulip.com/static/third/gemoji/images/emoji/grimacing.png'
p986
sS':shirt:'
p987
S'https://zulip.com/static/third/gemoji/images/emoji/shirt.png'
p988
sS':vibration_mode:'
p989
S'https://zulip.com/static/third/gemoji/images/emoji/vibration_mode.png'
p990
sS':hushed:'
p991
S'https://zulip.com/static/third/gemoji/images/emoji/hushed.png'
p992
sS':boar:'
p993
S'https://zulip.com/static/third/gemoji/images/emoji/boar.png'
p994
sS':kiss:'
p995
S'https://zulip.com/static/third/gemoji/images/emoji/kiss.png'
p996
sS':fire_engine:'
p997
S'https://zulip.com/static/third/gemoji/images/emoji/fire_engine.png'
p998
sS':hatching_chick:'
p999
S'https://zulip.com/static/third/gemoji/images/emoji/hatching_chick.png'
p1000
sS':two_hearts:'
p1001
S'https://zulip.com/static/third/gemoji/images/emoji/two_hearts.png'
p1002
sS':pineapple:'
p1003
S'https://zulip.com/static/third/gemoji/images/emoji/pineapple.png'
p1004
sS':waning_gibbous_moon:'
p1005
S'https://zulip.com/static/third/gemoji/images/emoji/waning_gibbous_moon.png'
p1006
sS':arrow_right:'
p1007
S'https://zulip.com/static/third/gemoji/images/emoji/arrow_right.png'
p1008
sS':frog:'
p1009
S'https://zulip.com/static/third/gemoji/images/emoji/frog.png'
p1010
sS':ghost:'
p1011
S'https://zulip.com/static/third/gemoji/images/emoji/ghost.png'
p1012
sS':zzz:'
p1013
S'https://zulip.com/static/third/gemoji/images/emoji/zzz.png'
p1014
sS':couple:'
p1015
S'https://zulip.com/static/third/gemoji/images/emoji/couple.png'
p1016
sS':bangbang:'
p1017
S'https://zulip.com/static/third/gemoji/images/emoji/bangbang.png'
p1018
sS':seat:'
p1019
S'https://zulip.com/static/third/gemoji/images/emoji/seat.png'
p1020
sS':japanese_goblin:'
p1021
S'https://zulip.com/static/third/gemoji/images/emoji/japanese_goblin.png'
p1022
sS':point_up_2:'
p1023
S'https://zulip.com/static/third/gemoji/images/emoji/point_up_2.png'
p1024
sS':arrow_right_hook:'
p1025
S'https://zulip.com/static/third/gemoji/images/emoji/arrow_right_hook.png'
p1026
sS':bride_with_veil:'
p1027
S'https://zulip.com/static/third/gemoji/images/emoji/bride_with_veil.png'
p1028
sS':repeat_one:'
p1029
S'https://zulip.com/static/third/gemoji/images/emoji/repeat_one.png'
p1030
sS':wrench:'
p1031
S'https://zulip.com/static/third/gemoji/images/emoji/wrench.png'
p1032
sS':grey_question:'
p1033
S'https://zulip.com/static/third/gemoji/images/emoji/grey_question.png'
p1034
sS':ice_cream:'
p1035
S'https://zulip.com/static/third/gemoji/images/emoji/ice_cream.png'
p1036
sS':bookmark:'
p1037
S'https://zulip.com/static/third/gemoji/images/emoji/bookmark.png'
p1038
sS':blue_book:'
p1039
S'https://zulip.com/static/third/gemoji/images/emoji/blue_book.png'
p1040
sS':lemon:'
p1041
S'https://zulip.com/static/third/gemoji/images/emoji/lemon.png'
p1042
sS':tennis:'
p1043
S'https://zulip.com/static/third/gemoji/images/emoji/tennis.png'
p1044
sS':crying_cat_face:'
p1045
S'https://zulip.com/static/third/gemoji/images/emoji/crying_cat_face.png'
p1046
sS':small_orange_diamond:'
p1047
S'https://zulip.com/static/third/gemoji/images/emoji/small_orange_diamond.png'
p1048
sS':ring:'
p1049
S'https://zulip.com/static/third/gemoji/images/emoji/ring.png'
p1050
sS':massage:'
p1051
S'https://zulip.com/static/third/gemoji/images/emoji/massage.png'
p1052
sS':shell:'
p1053
S'https://zulip.com/static/third/gemoji/images/emoji/shell.png'
p1054
sS':telephone_receiver:'
p1055
S'https://zulip.com/static/third/gemoji/images/emoji/telephone_receiver.png'
p1056
sS':headphones:'
p1057
S'https://zulip.com/static/third/gemoji/images/emoji/headphones.png'
p1058
sS':hamburger:'
p1059
S'https://zulip.com/static/third/gemoji/images/emoji/hamburger.png'
p1060
sS':money_with_wings:'
p1061
S'https://zulip.com/static/third/gemoji/images/emoji/money_with_wings.png'
p1062
sS':post_office:'
p1063
S'https://zulip.com/static/third/gemoji/images/emoji/post_office.png'
p1064
sS':green_apple:'
p1065
S'https://zulip.com/static/third/gemoji/images/emoji/green_apple.png'
p1066
sS':bridge_at_night:'
p1067
S'https://zulip.com/static/third/gemoji/images/emoji/bridge_at_night.png'
p1068
sS':e-mail:'
p1069
S'https://zulip.com/static/third/gemoji/images/emoji/e-mail.png'
p1070
sS':poop:'
p1071
S'https://zulip.com/static/third/gemoji/images/emoji/poop.png'
p1072
sS':pisces:'
p1073
S'https://zulip.com/static/third/gemoji/images/emoji/pisces.png'
p1074
sS':seven:'
p1075
S'https://zulip.com/static/third/gemoji/images/emoji/seven.png'
p1076
sS':railway_car:'
p1077
S'https://zulip.com/static/third/gemoji/images/emoji/railway_car.png'
p1078
sS':lock_with_ink_pen:'
p1079
S'https://zulip.com/static/third/gemoji/images/emoji/lock_with_ink_pen.png'
p1080
sS':candy:'
p1081
S'https://zulip.com/static/third/gemoji/images/emoji/candy.png'
p1082
sS':pensive:'
p1083
S'https://zulip.com/static/third/gemoji/images/emoji/pensive.png'
p1084
sS':persevere:'
p1085
S'https://zulip.com/static/third/gemoji/images/emoji/persevere.png'
p1086
sS':poodle:'
p1087
S'https://zulip.com/static/third/gemoji/images/emoji/poodle.png'
p1088
sS':no_pedestrians:'
p1089
S'https://zulip.com/static/third/gemoji/images/emoji/no_pedestrians.png'
p1090
sS':runner:'
p1091
S'https://zulip.com/static/third/gemoji/images/emoji/runner.png'
p1092
sS':outbox_tray:'
p1093
S'https://zulip.com/static/third/gemoji/images/emoji/outbox_tray.png'
p1094
sS':bulb:'
p1095
S'https://zulip.com/static/third/gemoji/images/emoji/bulb.png'
p1096
sS':raised_hands:'
p1097
S'https://zulip.com/static/third/gemoji/images/emoji/raised_hands.png'
p1098
sS':relieved:'
p1099
S'https://zulip.com/static/third/gemoji/images/emoji/relieved.png'
p1100
sS':wavy_dash:'
p1101
S'https://zulip.com/static/third/gemoji/images/emoji/wavy_dash.png'
p1102
sS':tomato:'
p1103
S'https://zulip.com/static/third/gemoji/images/emoji/tomato.png'
p1104
sS':dolphin:'
p1105
S'https://zulip.com/static/third/gemoji/images/emoji/dolphin.png'
p1106
sS':dizzy:'
p1107
S'https://zulip.com/static/third/gemoji/images/emoji/dizzy.png'
p1108
sS':oncoming_automobile:'
p1109
S'https://zulip.com/static/third/gemoji/images/emoji/oncoming_automobile.png'
p1110
sS':straight_ruler:'
p1111
S'https://zulip.com/static/third/gemoji/images/emoji/straight_ruler.png'
p1112
sS':city_sunset:'
p1113
S'https://zulip.com/static/third/gemoji/images/emoji/city_sunset.png'
p1114
sS':disappointed:'
p1115
S'https://zulip.com/static/third/gemoji/images/emoji/disappointed.png'
p1116
sS':green_heart:'
p1117
S'https://zulip.com/static/third/gemoji/images/emoji/green_heart.png'
p1118
sS':mailbox_closed:'
p1119
S'https://zulip.com/static/third/gemoji/images/emoji/mailbox_closed.png'
p1120
sS':clap:'
p1121
S'https://zulip.com/static/third/gemoji/images/emoji/clap.png'
p1122
sS':bird:'
p1123
S'https://zulip.com/static/third/gemoji/images/emoji/bird.png'
p1124
sS':envelope:'
p1125
S'https://zulip.com/static/third/gemoji/images/emoji/envelope.png'
p1126
sS':high_heel:'
p1127
S'https://zulip.com/static/third/gemoji/images/emoji/high_heel.png'
p1128
sS':expressionless:'
p1129
S'https://zulip.com/static/third/gemoji/images/emoji/expressionless.png'
p1130
sS':closed_umbrella:'
p1131
S'https://zulip.com/static/third/gemoji/images/emoji/closed_umbrella.png'
p1132
sS':anger:'
p1133
S'https://zulip.com/static/third/gemoji/images/emoji/anger.png'
p1134
sS':worried:'
p1135
S'https://zulip.com/static/third/gemoji/images/emoji/worried.png'
p1136
sS':thumbsup:'
p1137
S'https://zulip.com/static/third/gemoji/images/emoji/thumbsup.png'
p1138
sS':scroll:'
p1139
S'https://zulip.com/static/third/gemoji/images/emoji/scroll.png'
p1140
sS':blush:'
p1141
S'https://zulip.com/static/third/gemoji/images/emoji/blush.png'
p1142
sS':fearful:'
p1143
S'https://zulip.com/static/third/gemoji/images/emoji/fearful.png'
p1144
sS':white_check_mark:'
p1145
S'https://zulip.com/static/third/gemoji/images/emoji/white_check_mark.png'
p1146
sS':cat:'
p1147
S'https://zulip.com/static/third/gemoji/images/emoji/cat.png'
p1148
sS':hear_no_evil:'
p1149
S'https://zulip.com/static/third/gemoji/images/emoji/hear_no_evil.png'
p1150
sS':bouquet:'
p1151
S'https://zulip.com/static/third/gemoji/images/emoji/bouquet.png'
p1152
sS':checkered_flag:'
p1153
S'https://zulip.com/static/third/gemoji/images/emoji/checkered_flag.png'
p1154
sS':currency_exchange:'
p1155
S'https://zulip.com/static/third/gemoji/images/emoji/currency_exchange.png'
p1156
sS':clipboard:'
p1157
S'https://zulip.com/static/third/gemoji/images/emoji/clipboard.png'
p1158
sS':taxi:'
p1159
S'https://zulip.com/static/third/gemoji/images/emoji/taxi.png'
p1160
sS':cocktail:'
p1161
S'https://zulip.com/static/third/gemoji/images/emoji/cocktail.png'
p1162
sS':triumph:'
p1163
S'https://zulip.com/static/third/gemoji/images/emoji/triumph.png'
p1164
sS':shit:'
p1165
S'https://zulip.com/static/third/gemoji/images/emoji/shit.png'
p1166
sS':construction_worker:'
p1167
S'https://zulip.com/static/third/gemoji/images/emoji/construction_worker.png'
p1168
sS':minidisc:'
p1169
S'https://zulip.com/static/third/gemoji/images/emoji/minidisc.png'
p1170
sS':sagittarius:'
p1171
S'https://zulip.com/static/third/gemoji/images/emoji/sagittarius.png'
p1172
sS':microphone:'
p1173
S'https://zulip.com/static/third/gemoji/images/emoji/microphone.png'
p1174
sS':mahjong:'
p1175
S'https://zulip.com/static/third/gemoji/images/emoji/mahjong.png'
p1176
sS':tophat:'
p1177
S'https://zulip.com/static/third/gemoji/images/emoji/tophat.png'
p1178
sS':birthday:'
p1179
S'https://zulip.com/static/third/gemoji/images/emoji/birthday.png'
p1180
sS':crystal_ball:'
p1181
S'https://zulip.com/static/third/gemoji/images/emoji/crystal_ball.png'
p1182
sS':house_with_garden:'
p1183
S'https://zulip.com/static/third/gemoji/images/emoji/house_with_garden.png'
p1184
sS':fireworks:'
p1185
S'https://zulip.com/static/third/gemoji/images/emoji/fireworks.png'
p1186
sS':smirk:'
p1187
S'https://zulip.com/static/third/gemoji/images/emoji/smirk.png'
p1188
sS':scream_cat:'
p1189
S'https://zulip.com/static/third/gemoji/images/emoji/scream_cat.png'
p1190
sS':heavy_minus_sign:'
p1191
S'https://zulip.com/static/third/gemoji/images/emoji/heavy_minus_sign.png'
p1192
sS':baby:'
p1193
S'https://zulip.com/static/third/gemoji/images/emoji/baby.png'
p1194
sS':wave:'
p1195
S'https://zulip.com/static/third/gemoji/images/emoji/wave.png'
p1196
sS':black_square_button:'
p1197
S'https://zulip.com/static/third/gemoji/images/emoji/black_square_button.png'
p1198
sS':earth_africa:'
p1199
S'https://zulip.com/static/third/gemoji/images/emoji/earth_africa.png'
p1200
sS':arrows_clockwise:'
p1201
S'https://zulip.com/static/third/gemoji/images/emoji/arrows_clockwise.png'
p1202
sS':purse:'
p1203
S'https://zulip.com/static/third/gemoji/images/emoji/purse.png'
p1204
sS':tanabata_tree:'
p1205
S'https://zulip.com/static/third/gemoji/images/emoji/tanabata_tree.png'
p1206
sS':football:'
p1207
S'https://zulip.com/static/third/gemoji/images/emoji/football.png'
p1208
sS':city_sunrise:'
p1209
S'https://zulip.com/static/third/gemoji/images/emoji/city_sunrise.png'
p1210
sS':bento:'
p1211
S'https://zulip.com/static/third/gemoji/images/emoji/bento.png'
p1212
sS':movie_camera:'
p1213
S'https://zulip.com/static/third/gemoji/images/emoji/movie_camera.png'
p1214
sS':lollipop:'
p1215
S'https://zulip.com/static/third/gemoji/images/emoji/lollipop.png'
p1216
sS':baggage_claim:'
p1217
S'https://zulip.com/static/third/gemoji/images/emoji/baggage_claim.png'
p1218
sS':oncoming_bus:'
p1219
S'https://zulip.com/static/third/gemoji/images/emoji/oncoming_bus.png'
p1220
sS':department_store:'
p1221
S'https://zulip.com/static/third/gemoji/images/emoji/department_store.png'
p1222
sS':nail_care:'
p1223
S'https://zulip.com/static/third/gemoji/images/emoji/nail_care.png'
p1224
sS':mount_fuji:'
p1225
S'https://zulip.com/static/third/gemoji/images/emoji/mount_fuji.png'
p1226
sS':wind_chime:'
p1227
S'https://zulip.com/static/third/gemoji/images/emoji/wind_chime.png'
p1228
sS':tractor:'
p1229
S'https://zulip.com/static/third/gemoji/images/emoji/tractor.png'
p1230
sS':beetle:'
p1231
S'https://zulip.com/static/third/gemoji/images/emoji/beetle.png'
p1232
sS':station:'
p1233
S'https://zulip.com/static/third/gemoji/images/emoji/station.png'
p1234
sS':page_facing_up:'
p1235
S'https://zulip.com/static/third/gemoji/images/emoji/page_facing_up.png'
p1236
sS':new:'
p1237
S'https://zulip.com/static/third/gemoji/images/emoji/new.png'
p1238
sS':no_bell:'
p1239
S'https://zulip.com/static/third/gemoji/images/emoji/no_bell.png'
p1240
sS':basketball:'
p1241
S'https://zulip.com/static/third/gemoji/images/emoji/basketball.png'
p1242
sS':hibiscus:'
p1243
S'https://zulip.com/static/third/gemoji/images/emoji/hibiscus.png'
p1244
sS':trolleybus:'
p1245
S'https://zulip.com/static/third/gemoji/images/emoji/trolleybus.png'
p1246
sS':waning_crescent_moon:'
p1247
S'https://zulip.com/static/third/gemoji/images/emoji/waning_crescent_moon.png'
p1248
sS':rabbit:'
p1249
S'https://zulip.com/static/third/gemoji/images/emoji/rabbit.png'
p1250
sS':lipstick:'
p1251
S'https://zulip.com/static/third/gemoji/images/emoji/lipstick.png'
p1252
sS':musical_keyboard:'
p1253
S'https://zulip.com/static/third/gemoji/images/emoji/musical_keyboard.png'
p1254
sS':abc:'
p1255
S'https://zulip.com/static/third/gemoji/images/emoji/abc.png'
p1256
sS':pencil2:'
p1257
S'https://zulip.com/static/third/gemoji/images/emoji/pencil2.png'
p1258
sS':stars:'
p1259
S'https://zulip.com/static/third/gemoji/images/emoji/stars.png'
p1260
sS':cyclone:'
p1261
S'https://zulip.com/static/third/gemoji/images/emoji/cyclone.png'
p1262
sS':ribbon:'
p1263
S'https://zulip.com/static/third/gemoji/images/emoji/ribbon.png'
p1264
sS':mega:'
p1265
S'https://zulip.com/static/third/gemoji/images/emoji/mega.png'
p1266
sS':person_with_pouting_face:'
p1267
S'https://zulip.com/static/third/gemoji/images/emoji/person_with_pouting_face.png'
p1268
sS':paw_prints:'
p1269
S'https://zulip.com/static/third/gemoji/images/emoji/paw_prints.png'
p1270
sS':exclamation:'
p1271
S'https://zulip.com/static/third/gemoji/images/emoji/exclamation.png'
p1272
sS':libra:'
p1273
S'https://zulip.com/static/third/gemoji/images/emoji/libra.png'
p1274
sS':rewind:'
p1275
S'https://zulip.com/static/third/gemoji/images/emoji/rewind.png'
p1276
sS':meat_on_bone:'
p1277
S'https://zulip.com/static/third/gemoji/images/emoji/meat_on_bone.png'
p1278
sS':seedling:'
p1279
S'https://zulip.com/static/third/gemoji/images/emoji/seedling.png'
p1280
sS':tropical_fish:'
p1281
S'https://zulip.com/static/third/gemoji/images/emoji/tropical_fish.png'
p1282
sS':pager:'
p1283
S'https://zulip.com/static/third/gemoji/images/emoji/pager.png'
p1284
sS':fountain:'
p1285
S'https://zulip.com/static/third/gemoji/images/emoji/fountain.png'
p1286
sS':volcano:'
p1287
S'https://zulip.com/static/third/gemoji/images/emoji/volcano.png'
p1288
sS':curry:'
p1289
S'https://zulip.com/static/third/gemoji/images/emoji/curry.png'
p1290
sS':rat:'
p1291
S'https://zulip.com/static/third/gemoji/images/emoji/rat.png'
p1292
sS':flashlight:'
p1293
S'https://zulip.com/static/third/gemoji/images/emoji/flashlight.png'
p1294
sS':video_game:'
p1295
S'https://zulip.com/static/third/gemoji/images/emoji/video_game.png'
p1296
sS':hatched_chick:'
p1297
S'https://zulip.com/static/third/gemoji/images/emoji/hatched_chick.png'
p1298
sS':bug:'
p1299
S'https://zulip.com/static/third/gemoji/images/emoji/bug.png'
p1300
sS':art:'
p1301
S'https://zulip.com/static/third/gemoji/images/emoji/art.png'
p1302
sS':cake:'
p1303
S'https://zulip.com/static/third/gemoji/images/emoji/cake.png'
p1304
sS':love_letter:'
p1305
S'https://zulip.com/static/third/gemoji/images/emoji/love_letter.png'
p1306
sS':saxophone:'
p1307
S'https://zulip.com/static/third/gemoji/images/emoji/saxophone.png'
p1308
sS':sparkler:'
p1309
S'https://zulip.com/static/third/gemoji/images/emoji/sparkler.png'
p1310
sS':whale:'
p1311
S'https://zulip.com/static/third/gemoji/images/emoji/whale.png'
p1312
sS':sweat_drops:'
p1313
S'https://zulip.com/static/third/gemoji/images/emoji/sweat_drops.png'
p1314
sS':peach:'
p1315
S'https://zulip.com/static/third/gemoji/images/emoji/peach.png'
p1316
sS':purple_heart:'
p1317
S'https://zulip.com/static/third/gemoji/images/emoji/purple_heart.png'
p1318
sS':arrow_down_small:'
p1319
S'https://zulip.com/static/third/gemoji/images/emoji/arrow_down_small.png'
p1320
sS':eyeglasses:'
p1321
S'https://zulip.com/static/third/gemoji/images/emoji/eyeglasses.png'
p1322
sS':arrow_lower_right:'
p1323
S'https://zulip.com/static/third/gemoji/images/emoji/arrow_lower_right.png'
p1324
sS':milky_way:'
p1325
S'https://zulip.com/static/third/gemoji/images/emoji/milky_way.png'
p1326
sS':globe_with_meridians:'
p1327
S'https://zulip.com/static/third/gemoji/images/emoji/globe_with_meridians.png'
p1328
sS':white_medium_square:'
p1329
S'https://zulip.com/static/third/gemoji/images/emoji/white_medium_square.png'
p1330
sS':spades:'
p1331
S'https://zulip.com/static/third/gemoji/images/emoji/spades.png'
p1332
sS':lips:'
p1333
S'https://zulip.com/static/third/gemoji/images/emoji/lips.png'
p1334
sS':eight_pointed_black_star:'
p1335
S'https://zulip.com/static/third/gemoji/images/emoji/eight_pointed_black_star.png'
p1336
sS':carousel_horse:'
p1337
S'https://zulip.com/static/third/gemoji/images/emoji/carousel_horse.png'
p1338
sS':point_up:'
p1339
S'https://zulip.com/static/third/gemoji/images/emoji/point_up.png'
p1340
sS':gem:'
p1341
S'https://zulip.com/static/third/gemoji/images/emoji/gem.png'
p1342
sS':dolls:'
p1343
S'https://zulip.com/static/third/gemoji/images/emoji/dolls.png'
p1344
sS':circus_tent:'
p1345
S'https://zulip.com/static/third/gemoji/images/emoji/circus_tent.png'
p1346
sS':rabbit2:'
p1347
S'https://zulip.com/static/third/gemoji/images/emoji/rabbit2.png'
p1348
sS':hocho:'
p1349
S'https://zulip.com/static/third/gemoji/images/emoji/hocho.png'
p1350
sS':twisted_rightwards_arrows:'
p1351
S'https://zulip.com/static/third/gemoji/images/emoji/twisted_rightwards_arrows.png'
p1352
sS':zap:'
p1353
S'https://zulip.com/static/third/gemoji/images/emoji/zap.png'
p1354
sS':smiley:'
p1355
S'https://zulip.com/static/third/gemoji/images/emoji/smiley.png'
p1356
sS':earth_americas:'
p1357
S'https://zulip.com/static/third/gemoji/images/emoji/earth_americas.png'
p1358
sS':sound:'
p1359
S'https://zulip.com/static/third/gemoji/images/emoji/sound.png'
p1360
sS':pouting_cat:'
p1361
S'https://zulip.com/static/third/gemoji/images/emoji/pouting_cat.png'
p1362
sS':mute:'
p1363
S'https://zulip.com/static/third/gemoji/images/emoji/mute.png'
p1364
sS':school:'
p1365
S'https://zulip.com/static/third/gemoji/images/emoji/school.png'
p1366
sS':file_folder:'
p1367
S'https://zulip.com/static/third/gemoji/images/emoji/file_folder.png'
p1368
sS':rage:'
p1369
S'https://zulip.com/static/third/gemoji/images/emoji/rage.png'
p1370
sS':incoming_envelope:'
p1371
S'https://zulip.com/static/third/gemoji/images/emoji/incoming_envelope.png'
p1372
sS':put_litter_in_its_place:'
p1373
S'https://zulip.com/static/third/gemoji/images/emoji/put_litter_in_its_place.png'
p1374
sS':phone:'
p1375
S'https://zulip.com/static/third/gemoji/images/emoji/phone.png'
p1376
sS':speaker:'
p1377
S'https://zulip.com/static/third/gemoji/images/emoji/speaker.png'
p1378
sS':heartpulse:'
p1379
S'https://zulip.com/static/third/gemoji/images/emoji/heartpulse.png'
p1380
sS':arrow_lower_left:'
p1381
S'https://zulip.com/static/third/gemoji/images/emoji/arrow_lower_left.png'
p1382
sS':waxing_crescent_moon:'
p1383
S'https://zulip.com/static/third/gemoji/images/emoji/waxing_crescent_moon.png'
p1384
sS':small_red_triangle:'
p1385
S'https://zulip.com/static/third/gemoji/images/emoji/small_red_triangle.png'
p1386
sS':kissing_closed_eyes:'
p1387
S'https://zulip.com/static/third/gemoji/images/emoji/kissing_closed_eyes.png'
p1388
sS':grinning:'
p1389
S'https://zulip.com/static/third/gemoji/images/emoji/grinning.png'
p1390
sS':cookie:'
p1391
S'https://zulip.com/static/third/gemoji/images/emoji/cookie.png'
p1392
sS':dash:'
p1393
S'https://zulip.com/static/third/gemoji/images/emoji/dash.png'
p1394
sS':clock1030:'
p1395
S'https://zulip.com/static/third/gemoji/images/emoji/clock1030.png'
p1396
sS':open_file_folder:'
p1397
S'https://zulip.com/static/third/gemoji/images/emoji/open_file_folder.png'
p1398
sS':scissors:'
p1399
S'https://zulip.com/static/third/gemoji/images/emoji/scissors.png'
p1400
sS':truck:'
p1401
S'https://zulip.com/static/third/gemoji/images/emoji/truck.png'
p1402
sS':repeat:'
p1403
S'https://zulip.com/static/third/gemoji/images/emoji/repeat.png'
p1404
sS':clock11:'
p1405
S'https://zulip.com/static/third/gemoji/images/emoji/clock11.png'
p1406
sS':clubs:'
p1407
S'https://zulip.com/static/third/gemoji/images/emoji/clubs.png'
p1408
sS':clock1130:'
p1409
S'https://zulip.com/static/third/gemoji/images/emoji/clock1130.png'
p1410
sS':bullettrain_side:'
p1411
S'https://zulip.com/static/third/gemoji/images/emoji/bullettrain_side.png'
p1412
sS':black_medium_small_square:'
p1413
S'https://zulip.com/static/third/gemoji/images/emoji/black_medium_small_square.png'
p1414
sS':diamond_shape_with_a_dot_inside:'
p1415
S'https://zulip.com/static/third/gemoji/images/emoji/diamond_shape_with_a_dot_inside.png'
p1416
sS':aerial_tramway:'
p1417
S'https://zulip.com/static/third/gemoji/images/emoji/aerial_tramway.png'
p1418
sS':dragon:'
p1419
S'https://zulip.com/static/third/gemoji/images/emoji/dragon.png'
p1420
sS':arrow_down:'
p1421
S'https://zulip.com/static/third/gemoji/images/emoji/arrow_down.png'
p1422
sS':rice_cracker:'
p1423
S'https://zulip.com/static/third/gemoji/images/emoji/rice_cracker.png'
p1424
sS':white_medium_small_square:'
p1425
S'https://zulip.com/static/third/gemoji/images/emoji/white_medium_small_square.png'
p1426
sS':sweat_smile:'
p1427
S'https://zulip.com/static/third/gemoji/images/emoji/sweat_smile.png'
p1428
sS':cherry_blossom:'
p1429
S'https://zulip.com/static/third/gemoji/images/emoji/cherry_blossom.png'
p1430
sS':dvd:'
p1431
S'https://zulip.com/static/third/gemoji/images/emoji/dvd.png'
p1432
sS':beers:'
p1433
S'https://zulip.com/static/third/gemoji/images/emoji/beers.png'
p1434
sS':recycle:'
p1435
S'https://zulip.com/static/third/gemoji/images/emoji/recycle.png'
p1436
sS':strawberry:'
p1437
S'https://zulip.com/static/third/gemoji/images/emoji/strawberry.png'
p1438
sS':flower_playing_cards:'
p1439
S'https://zulip.com/static/third/gemoji/images/emoji/flower_playing_cards.png'
p1440
sS':hourglass:'
p1441
S'https://zulip.com/static/third/gemoji/images/emoji/hourglass.png'
p1442
sS':aries:'
p1443
S'https://zulip.com/static/third/gemoji/images/emoji/aries.png'
p1444
sS':grapes:'
p1445
S'https://zulip.com/static/third/gemoji/images/emoji/grapes.png'
p1446
sS':man:'
p1447
S'https://zulip.com/static/third/gemoji/images/emoji/man.png'
p1448
sS':heavy_exclamation_mark:'
p1449
S'https://zulip.com/static/third/gemoji/images/emoji/heavy_exclamation_mark.png'
p1450
sS':leaves:'
p1451
S'https://zulip.com/static/third/gemoji/images/emoji/leaves.png'
p1452
sS':bath:'
p1453
S'https://zulip.com/static/third/gemoji/images/emoji/bath.png'
p1454
sS':atm:'
p1455
S'https://zulip.com/static/third/gemoji/images/emoji/atm.png'
p1456
sS':joy:'
p1457
S'https://zulip.com/static/third/gemoji/images/emoji/joy.png'
p1458
sS':heavy_division_sign:'
p1459
S'https://zulip.com/static/third/gemoji/images/emoji/heavy_division_sign.png'
p1460
sS':bust_in_silhouette:'
p1461
S'https://zulip.com/static/third/gemoji/images/emoji/bust_in_silhouette.png'
p1462
sS':santa:'
p1463
S'https://zulip.com/static/third/gemoji/images/emoji/santa.png'
p1464
sS':elephant:'
p1465
S'https://zulip.com/static/third/gemoji/images/emoji/elephant.png'
p1466
sS':mens:'
p1467
S'https://zulip.com/static/third/gemoji/images/emoji/mens.png'
p1468
sS':office:'
p1469
S'https://zulip.com/static/third/gemoji/images/emoji/office.png'
p1470
sS':notebook_with_decorative_cover:'
p1471
S'https://zulip.com/static/third/gemoji/images/emoji/notebook_with_decorative_cover.png'
p1472
sS':egg:'
p1473
S'https://zulip.com/static/third/gemoji/images/emoji/egg.png'
p1474
sS':wine_glass:'
p1475
S'https://zulip.com/static/third/gemoji/images/emoji/wine_glass.png'
p1476
sS':no_bicycles:'
p1477
S'https://zulip.com/static/third/gemoji/images/emoji/no_bicycles.png'
p1478
sS':bikini:'
p1479
S'https://zulip.com/static/third/gemoji/images/emoji/bikini.png'
p1480
sS':passport_control:'
p1481
S'https://zulip.com/static/third/gemoji/images/emoji/passport_control.png'
p1482
sS':email:'
p1483
S'https://zulip.com/static/third/gemoji/images/emoji/email.png'
p1484
sS':zero:'
p1485
S'https://zulip.com/static/third/gemoji/images/emoji/zero.png'
p1486
sS':suspension_railway:'
p1487
S'https://zulip.com/static/third/gemoji/images/emoji/suspension_railway.png'
p1488
sS':evergreen_tree:'
p1489
S'https://zulip.com/static/third/gemoji/images/emoji/evergreen_tree.png'
p1490
sS':boy:'
p1491
S'https://zulip.com/static/third/gemoji/images/emoji/boy.png'
p1492
sS':koala:'
p1493
S'https://zulip.com/static/third/gemoji/images/emoji/koala.png'
p1494
sS':credit_card:'
p1495
S'https://zulip.com/static/third/gemoji/images/emoji/credit_card.png'
p1496
sS':open_book:'
p1497
S'https://zulip.com/static/third/gemoji/images/emoji/open_book.png'
p1498
sS':monkey_face:'
p1499
S'https://zulip.com/static/third/gemoji/images/emoji/monkey_face.png'
p1500
sS':dragon_face:'
p1501
S'https://zulip.com/static/third/gemoji/images/emoji/dragon_face.png'
p1502
sS':raising_hand:'
p1503
S'https://zulip.com/static/third/gemoji/images/emoji/raising_hand.png'
p1504
sS':ant:'
p1505
S'https://zulip.com/static/third/gemoji/images/emoji/ant.png'
p1506
sS':last_quarter_moon:'
p1507
S'https://zulip.com/static/third/gemoji/images/emoji/last_quarter_moon.png'
p1508
sS':clock1:'
p1509
S'https://zulip.com/static/third/gemoji/images/emoji/clock1.png'
p1510
sS':heartbeat:'
p1511
S'https://zulip.com/static/third/gemoji/images/emoji/heartbeat.png'
p1512
sS':turtle:'
p1513
S'https://zulip.com/static/third/gemoji/images/emoji/turtle.png'
p1514
sS':inbox_tray:'
p1515
S'https://zulip.com/static/third/gemoji/images/emoji/inbox_tray.png'
p1516
sS':dromedary_camel:'
p1517
S'https://zulip.com/static/third/gemoji/images/emoji/dromedary_camel.png'
p1518
sS':trident:'
p1519
S'https://zulip.com/static/third/gemoji/images/emoji/trident.png'
p1520
sS':chart:'
p1521
S'https://zulip.com/static/third/gemoji/images/emoji/chart.png'
p1522
sS':baby_symbol:'
p1523
S'https://zulip.com/static/third/gemoji/images/emoji/baby_symbol.png'
p1524
sS':warning:'
p1525
S'https://zulip.com/static/third/gemoji/images/emoji/warning.png'
p1526
sS':pear:'
p1527
S'https://zulip.com/static/third/gemoji/images/emoji/pear.png'
p1528
sS':telephone:'
p1529
S'https://zulip.com/static/third/gemoji/images/emoji/telephone.png'
p1530
sS':heart_eyes_cat:'
p1531
S'https://zulip.com/static/third/gemoji/images/emoji/heart_eyes_cat.png'
p1532
sS':dizzy_face:'
p1533
S'https://zulip.com/static/third/gemoji/images/emoji/dizzy_face.png'
p1534
sS':pig_nose:'
p1535
S'https://zulip.com/static/third/gemoji/images/emoji/pig_nose.png'
p1536
sS':doughnut:'
p1537
S'https://zulip.com/static/third/gemoji/images/emoji/doughnut.png'
p1538
sS':rainbow:'
p1539
S'https://zulip.com/static/third/gemoji/images/emoji/rainbow.png'
p1540
sS':rice:'
p1541
S'https://zulip.com/static/third/gemoji/images/emoji/rice.png'
p1542
sS':necktie:'
p1543
S'https://zulip.com/static/third/gemoji/images/emoji/necktie.png'
p1544
sS':tea:'
p1545
S'https://zulip.com/static/third/gemoji/images/emoji/tea.png'
p1546
sS':girl:'
p1547
S'https://zulip.com/static/third/gemoji/images/emoji/girl.png'
p1548
sS':clock10:'
p1549
S'https://zulip.com/static/third/gemoji/images/emoji/clock10.png'
p1550
sS':bike:'
p1551
S'https://zulip.com/static/third/gemoji/images/emoji/bike.png'
p1552
sS':children_crossing:'
p1553
S'https://zulip.com/static/third/gemoji/images/emoji/children_crossing.png'
p1554
sS':cop:'
p1555
S'https://zulip.com/static/third/gemoji/images/emoji/cop.png'
p1556
sS':poultry_leg:'
p1557
S'https://zulip.com/static/third/gemoji/images/emoji/poultry_leg.png'
p1558
sS':dancers:'
p1559
S'https://zulip.com/static/third/gemoji/images/emoji/dancers.png'
p1560
sS':sleeping:'
p1561
S'https://zulip.com/static/third/gemoji/images/emoji/sleeping.png'
p1562
sS':black_circle:'
p1563
S'https://zulip.com/static/third/gemoji/images/emoji/black_circle.png'
p1564
sS':gun:'
p1565
S'https://zulip.com/static/third/gemoji/images/emoji/gun.png'
p1566
sS':rocket:'
p1567
S'https://zulip.com/static/third/gemoji/images/emoji/rocket.png'
p1568
sS':moneybag:'
p1569
S'https://zulip.com/static/third/gemoji/images/emoji/moneybag.png'
p1570
sS':arrow_up_small:'
p1571
S'https://zulip.com/static/third/gemoji/images/emoji/arrow_up_small.png'
p1572
sS':five:'
p1573
S'https://zulip.com/static/third/gemoji/images/emoji/five.png'
p1574
sS':large_blue_diamond:'
p1575
S'https://zulip.com/static/third/gemoji/images/emoji/large_blue_diamond.png'
p1576
sS':alarm_clock:'
p1577
S'https://zulip.com/static/third/gemoji/images/emoji/alarm_clock.png'
p1578
sS':kimono:'
p1579
S'https://zulip.com/static/third/gemoji/images/emoji/kimono.png'
p1580
sS':footprints:'
p1581
S'https://zulip.com/static/third/gemoji/images/emoji/footprints.png'
p1582
sS':information_source:'
p1583
S'https://zulip.com/static/third/gemoji/images/emoji/information_source.png'
p1584
sS':smiley_cat:'
p1585
S'https://zulip.com/static/third/gemoji/images/emoji/smiley_cat.png'
p1586
sS':cow:'
p1587
S'https://zulip.com/static/third/gemoji/images/emoji/cow.png'
p1588
sS':floppy_disk:'
p1589
S'https://zulip.com/static/third/gemoji/images/emoji/floppy_disk.png'
p1590
sS':sunglasses:'
p1591
S'https://zulip.com/static/third/gemoji/images/emoji/sunglasses.png'
p1592
sS':imp:'
p1593
S'https://zulip.com/static/third/gemoji/images/emoji/imp.png'
p1594
sS':gift_heart:'
p1595
S'https://zulip.com/static/third/gemoji/images/emoji/gift_heart.png'
p1596
sS':feet:'
p1597
S'https://zulip.com/static/third/gemoji/images/emoji/feet.png'
p1598
sS':honeybee:'
p1599
S'https://zulip.com/static/third/gemoji/images/emoji/honeybee.png'
p1600
sS':trumpet:'
p1601
S'https://zulip.com/static/third/gemoji/images/emoji/trumpet.png'
p1602
s.